
bomb:     file format elf64-x86-64


Disassembly of section .init:

0000000000000ef8 <_init>:
 ef8:	48 83 ec 08          	sub    $0x8,%rsp
 efc:	48 8b 05 dd 30 20 00 	mov    0x2030dd(%rip),%rax        # 203fe0 <__gmon_start__>
 f03:	48 85 c0             	test   %rax,%rax
 f06:	74 02                	je     f0a <_init+0x12>
 f08:	ff d0                	callq  *%rax
 f0a:	48 83 c4 08          	add    $0x8,%rsp
 f0e:	c3                   	retq   

Disassembly of section .plt:

0000000000000f10 <.plt>:
     f10:	ff 35 f2 30 20 00    	pushq  0x2030f2(%rip)        # 204008 <_GLOBAL_OFFSET_TABLE_+0x8>
     f16:	ff 25 f4 30 20 00    	jmpq   *0x2030f4(%rip)        # 204010 <_GLOBAL_OFFSET_TABLE_+0x10>
     f1c:	0f 1f 40 00          	nopl   0x0(%rax)

0000000000000f20 <getenv@plt>:
     f20:	ff 25 f2 30 20 00    	jmpq   *0x2030f2(%rip)        # 204018 <getenv@GLIBC_2.2.5>
     f26:	68 00 00 00 00       	pushq  $0x0
     f2b:	e9 e0 ff ff ff       	jmpq   f10 <.plt>

0000000000000f30 <__errno_location@plt>:
     f30:	ff 25 ea 30 20 00    	jmpq   *0x2030ea(%rip)        # 204020 <__errno_location@GLIBC_2.2.5>
     f36:	68 01 00 00 00       	pushq  $0x1
     f3b:	e9 d0 ff ff ff       	jmpq   f10 <.plt>

0000000000000f40 <strcpy@plt>:
     f40:	ff 25 e2 30 20 00    	jmpq   *0x2030e2(%rip)        # 204028 <strcpy@GLIBC_2.2.5>
     f46:	68 02 00 00 00       	pushq  $0x2
     f4b:	e9 c0 ff ff ff       	jmpq   f10 <.plt>

0000000000000f50 <puts@plt>:
     f50:	ff 25 da 30 20 00    	jmpq   *0x2030da(%rip)        # 204030 <puts@GLIBC_2.2.5>
     f56:	68 03 00 00 00       	pushq  $0x3
     f5b:	e9 b0 ff ff ff       	jmpq   f10 <.plt>

0000000000000f60 <write@plt>:
     f60:	ff 25 d2 30 20 00    	jmpq   *0x2030d2(%rip)        # 204038 <write@GLIBC_2.2.5>
     f66:	68 04 00 00 00       	pushq  $0x4
     f6b:	e9 a0 ff ff ff       	jmpq   f10 <.plt>

0000000000000f70 <fclose@plt>:
     f70:	ff 25 ca 30 20 00    	jmpq   *0x2030ca(%rip)        # 204040 <fclose@GLIBC_2.2.5>
     f76:	68 05 00 00 00       	pushq  $0x5
     f7b:	e9 90 ff ff ff       	jmpq   f10 <.plt>

0000000000000f80 <system@plt>:
     f80:	ff 25 c2 30 20 00    	jmpq   *0x2030c2(%rip)        # 204048 <system@GLIBC_2.2.5>
     f86:	68 06 00 00 00       	pushq  $0x6
     f8b:	e9 80 ff ff ff       	jmpq   f10 <.plt>

0000000000000f90 <printf@plt>:
     f90:	ff 25 ba 30 20 00    	jmpq   *0x2030ba(%rip)        # 204050 <printf@GLIBC_2.2.5>
     f96:	68 07 00 00 00       	pushq  $0x7
     f9b:	e9 70 ff ff ff       	jmpq   f10 <.plt>

0000000000000fa0 <rewind@plt>:
     fa0:	ff 25 b2 30 20 00    	jmpq   *0x2030b2(%rip)        # 204058 <rewind@GLIBC_2.2.5>
     fa6:	68 08 00 00 00       	pushq  $0x8
     fab:	e9 60 ff ff ff       	jmpq   f10 <.plt>

0000000000000fb0 <dup@plt>:
     fb0:	ff 25 aa 30 20 00    	jmpq   *0x2030aa(%rip)        # 204060 <dup@GLIBC_2.2.5>
     fb6:	68 09 00 00 00       	pushq  $0x9
     fbb:	e9 50 ff ff ff       	jmpq   f10 <.plt>

0000000000000fc0 <close@plt>:
     fc0:	ff 25 a2 30 20 00    	jmpq   *0x2030a2(%rip)        # 204068 <close@GLIBC_2.2.5>
     fc6:	68 0a 00 00 00       	pushq  $0xa
     fcb:	e9 40 ff ff ff       	jmpq   f10 <.plt>

0000000000000fd0 <fputc@plt>:
     fd0:	ff 25 9a 30 20 00    	jmpq   *0x20309a(%rip)        # 204070 <fputc@GLIBC_2.2.5>
     fd6:	68 0b 00 00 00       	pushq  $0xb
     fdb:	e9 30 ff ff ff       	jmpq   f10 <.plt>

0000000000000fe0 <fgets@plt>:
     fe0:	ff 25 92 30 20 00    	jmpq   *0x203092(%rip)        # 204078 <fgets@GLIBC_2.2.5>
     fe6:	68 0c 00 00 00       	pushq  $0xc
     feb:	e9 20 ff ff ff       	jmpq   f10 <.plt>

0000000000000ff0 <tmpfile@plt>:
     ff0:	ff 25 8a 30 20 00    	jmpq   *0x20308a(%rip)        # 204080 <tmpfile@GLIBC_2.2.5>
     ff6:	68 0d 00 00 00       	pushq  $0xd
     ffb:	e9 10 ff ff ff       	jmpq   f10 <.plt>

0000000000001000 <signal@plt>:
    1000:	ff 25 82 30 20 00    	jmpq   *0x203082(%rip)        # 204088 <signal@GLIBC_2.2.5>
    1006:	68 0e 00 00 00       	pushq  $0xe
    100b:	e9 00 ff ff ff       	jmpq   f10 <.plt>

0000000000001010 <gethostbyname@plt>:
    1010:	ff 25 7a 30 20 00    	jmpq   *0x20307a(%rip)        # 204090 <gethostbyname@GLIBC_2.2.5>
    1016:	68 0f 00 00 00       	pushq  $0xf
    101b:	e9 f0 fe ff ff       	jmpq   f10 <.plt>

0000000000001020 <fprintf@plt>:
    1020:	ff 25 72 30 20 00    	jmpq   *0x203072(%rip)        # 204098 <fprintf@GLIBC_2.2.5>
    1026:	68 10 00 00 00       	pushq  $0x10
    102b:	e9 e0 fe ff ff       	jmpq   f10 <.plt>

0000000000001030 <strtol@plt>:
    1030:	ff 25 6a 30 20 00    	jmpq   *0x20306a(%rip)        # 2040a0 <strtol@GLIBC_2.2.5>
    1036:	68 11 00 00 00       	pushq  $0x11
    103b:	e9 d0 fe ff ff       	jmpq   f10 <.plt>

0000000000001040 <inet_pton@plt>:
    1040:	ff 25 62 30 20 00    	jmpq   *0x203062(%rip)        # 2040a8 <inet_pton@GLIBC_2.2.5>
    1046:	68 12 00 00 00       	pushq  $0x12
    104b:	e9 c0 fe ff ff       	jmpq   f10 <.plt>

0000000000001050 <fflush@plt>:
    1050:	ff 25 5a 30 20 00    	jmpq   *0x20305a(%rip)        # 2040b0 <fflush@GLIBC_2.2.5>
    1056:	68 13 00 00 00       	pushq  $0x13
    105b:	e9 b0 fe ff ff       	jmpq   f10 <.plt>

0000000000001060 <__isoc99_sscanf@plt>:
    1060:	ff 25 52 30 20 00    	jmpq   *0x203052(%rip)        # 2040b8 <__isoc99_sscanf@GLIBC_2.7>
    1066:	68 14 00 00 00       	pushq  $0x14
    106b:	e9 a0 fe ff ff       	jmpq   f10 <.plt>

0000000000001070 <bcopy@plt>:
    1070:	ff 25 4a 30 20 00    	jmpq   *0x20304a(%rip)        # 2040c0 <bcopy@GLIBC_2.2.5>
    1076:	68 15 00 00 00       	pushq  $0x15
    107b:	e9 90 fe ff ff       	jmpq   f10 <.plt>

0000000000001080 <cuserid@plt>:
    1080:	ff 25 42 30 20 00    	jmpq   *0x203042(%rip)        # 2040c8 <cuserid@GLIBC_2.2.5>
    1086:	68 16 00 00 00       	pushq  $0x16
    108b:	e9 80 fe ff ff       	jmpq   f10 <.plt>

0000000000001090 <fopen@plt>:
    1090:	ff 25 3a 30 20 00    	jmpq   *0x20303a(%rip)        # 2040d0 <fopen@GLIBC_2.2.5>
    1096:	68 17 00 00 00       	pushq  $0x17
    109b:	e9 70 fe ff ff       	jmpq   f10 <.plt>

00000000000010a0 <strcat@plt>:
    10a0:	ff 25 32 30 20 00    	jmpq   *0x203032(%rip)        # 2040d8 <strcat@GLIBC_2.2.5>
    10a6:	68 18 00 00 00       	pushq  $0x18
    10ab:	e9 60 fe ff ff       	jmpq   f10 <.plt>

00000000000010b0 <sprintf@plt>:
    10b0:	ff 25 2a 30 20 00    	jmpq   *0x20302a(%rip)        # 2040e0 <sprintf@GLIBC_2.2.5>
    10b6:	68 19 00 00 00       	pushq  $0x19
    10bb:	e9 50 fe ff ff       	jmpq   f10 <.plt>

00000000000010c0 <exit@plt>:
    10c0:	ff 25 22 30 20 00    	jmpq   *0x203022(%rip)        # 2040e8 <exit@GLIBC_2.2.5>
    10c6:	68 1a 00 00 00       	pushq  $0x1a
    10cb:	e9 40 fe ff ff       	jmpq   f10 <.plt>

00000000000010d0 <connect@plt>:
    10d0:	ff 25 1a 30 20 00    	jmpq   *0x20301a(%rip)        # 2040f0 <connect@GLIBC_2.2.5>
    10d6:	68 1b 00 00 00       	pushq  $0x1b
    10db:	e9 30 fe ff ff       	jmpq   f10 <.plt>

00000000000010e0 <fwrite@plt>:
    10e0:	ff 25 12 30 20 00    	jmpq   *0x203012(%rip)        # 2040f8 <fwrite@GLIBC_2.2.5>
    10e6:	68 1c 00 00 00       	pushq  $0x1c
    10eb:	e9 20 fe ff ff       	jmpq   f10 <.plt>

00000000000010f0 <sleep@plt>:
    10f0:	ff 25 0a 30 20 00    	jmpq   *0x20300a(%rip)        # 204100 <sleep@GLIBC_2.2.5>
    10f6:	68 1d 00 00 00       	pushq  $0x1d
    10fb:	e9 10 fe ff ff       	jmpq   f10 <.plt>

0000000000001100 <__ctype_b_loc@plt>:
    1100:	ff 25 02 30 20 00    	jmpq   *0x203002(%rip)        # 204108 <__ctype_b_loc@GLIBC_2.3>
    1106:	68 1e 00 00 00       	pushq  $0x1e
    110b:	e9 00 fe ff ff       	jmpq   f10 <.plt>

0000000000001110 <socket@plt>:
    1110:	ff 25 fa 2f 20 00    	jmpq   *0x202ffa(%rip)        # 204110 <socket@GLIBC_2.2.5>
    1116:	68 1f 00 00 00       	pushq  $0x1f
    111b:	e9 f0 fd ff ff       	jmpq   f10 <.plt>

Disassembly of section .plt.got:

0000000000001120 <__cxa_finalize@plt>:
    1120:	ff 25 d2 2e 20 00    	jmpq   *0x202ed2(%rip)        # 203ff8 <__cxa_finalize@GLIBC_2.2.5>
    1126:	66 90                	xchg   %ax,%ax

Disassembly of section .text:

0000000000001130 <_start>:
    1130:	31 ed                	xor    %ebp,%ebp
    1132:	49 89 d1             	mov    %rdx,%r9
    1135:	5e                   	pop    %rsi
    1136:	48 89 e2             	mov    %rsp,%rdx
    1139:	48 83 e4 f0          	and    $0xfffffffffffffff0,%rsp
    113d:	50                   	push   %rax
    113e:	54                   	push   %rsp
    113f:	4c 8d 05 6a 11 00 00 	lea    0x116a(%rip),%r8        # 22b0 <__libc_csu_fini>
    1146:	48 8d 0d f3 10 00 00 	lea    0x10f3(%rip),%rcx        # 2240 <__libc_csu_init>
    114d:	48 8d 3d 0c 01 00 00 	lea    0x10c(%rip),%rdi        # 1260 <main>
    1154:	ff 15 7e 2e 20 00    	callq  *0x202e7e(%rip)        # 203fd8 <__libc_start_main@GLIBC_2.2.5>
    115a:	f4                   	hlt    
    115b:	0f 1f 44 00 00       	nopl   0x0(%rax,%rax,1)

0000000000001160 <deregister_tm_clones>:
    1160:	48 8d 3d 79 36 20 00 	lea    0x203679(%rip),%rdi        # 2047e0 <stdout@@GLIBC_2.2.5>
    1167:	48 8d 05 79 36 20 00 	lea    0x203679(%rip),%rax        # 2047e7 <__TMC_END__+0x7>
    116e:	55                   	push   %rbp
    116f:	48 29 f8             	sub    %rdi,%rax
    1172:	48 89 e5             	mov    %rsp,%rbp
    1175:	48 83 f8 0e          	cmp    $0xe,%rax
    1179:	76 15                	jbe    1190 <deregister_tm_clones+0x30>
    117b:	48 8b 05 4e 2e 20 00 	mov    0x202e4e(%rip),%rax        # 203fd0 <_ITM_deregisterTMCloneTable>
    1182:	48 85 c0             	test   %rax,%rax
    1185:	74 09                	je     1190 <deregister_tm_clones+0x30>
    1187:	5d                   	pop    %rbp
    1188:	ff e0                	jmpq   *%rax
    118a:	66 0f 1f 44 00 00    	nopw   0x0(%rax,%rax,1)
    1190:	5d                   	pop    %rbp
    1191:	c3                   	retq   
    1192:	0f 1f 40 00          	nopl   0x0(%rax)
    1196:	66 2e 0f 1f 84 00 00 	nopw   %cs:0x0(%rax,%rax,1)
    119d:	00 00 00 

00000000000011a0 <register_tm_clones>:
    11a0:	48 8d 3d 39 36 20 00 	lea    0x203639(%rip),%rdi        # 2047e0 <stdout@@GLIBC_2.2.5>
    11a7:	48 8d 35 32 36 20 00 	lea    0x203632(%rip),%rsi        # 2047e0 <stdout@@GLIBC_2.2.5>
    11ae:	55                   	push   %rbp
    11af:	48 29 fe             	sub    %rdi,%rsi
    11b2:	48 89 e5             	mov    %rsp,%rbp
    11b5:	48 c1 fe 03          	sar    $0x3,%rsi
    11b9:	48 89 f0             	mov    %rsi,%rax
    11bc:	48 c1 e8 3f          	shr    $0x3f,%rax
    11c0:	48 01 c6             	add    %rax,%rsi
    11c3:	48 d1 fe             	sar    %rsi
    11c6:	74 18                	je     11e0 <register_tm_clones+0x40>
    11c8:	48 8b 05 21 2e 20 00 	mov    0x202e21(%rip),%rax        # 203ff0 <_ITM_registerTMCloneTable>
    11cf:	48 85 c0             	test   %rax,%rax
    11d2:	74 0c                	je     11e0 <register_tm_clones+0x40>
    11d4:	5d                   	pop    %rbp
    11d5:	ff e0                	jmpq   *%rax
    11d7:	66 0f 1f 84 00 00 00 	nopw   0x0(%rax,%rax,1)
    11de:	00 00 
    11e0:	5d                   	pop    %rbp
    11e1:	c3                   	retq   
    11e2:	0f 1f 40 00          	nopl   0x0(%rax)
    11e6:	66 2e 0f 1f 84 00 00 	nopw   %cs:0x0(%rax,%rax,1)
    11ed:	00 00 00 

00000000000011f0 <__do_global_dtors_aux>:
    11f0:	80 3d 01 36 20 00 00 	cmpb   $0x0,0x203601(%rip)        # 2047f8 <completed.6972>
    11f7:	75 27                	jne    1220 <__do_global_dtors_aux+0x30>
    11f9:	48 83 3d f7 2d 20 00 	cmpq   $0x0,0x202df7(%rip)        # 203ff8 <__cxa_finalize@GLIBC_2.2.5>
    1200:	00 
    1201:	55                   	push   %rbp
    1202:	48 89 e5             	mov    %rsp,%rbp
    1205:	74 0c                	je     1213 <__do_global_dtors_aux+0x23>
    1207:	48 8b 3d 1a 2f 20 00 	mov    0x202f1a(%rip),%rdi        # 204128 <__dso_handle>
    120e:	e8 0d ff ff ff       	callq  1120 <__cxa_finalize@plt>
    1213:	e8 48 ff ff ff       	callq  1160 <deregister_tm_clones>
    1218:	5d                   	pop    %rbp
    1219:	c6 05 d8 35 20 00 01 	movb   $0x1,0x2035d8(%rip)        # 2047f8 <completed.6972>
    1220:	f3 c3                	repz retq 
    1222:	0f 1f 40 00          	nopl   0x0(%rax)
    1226:	66 2e 0f 1f 84 00 00 	nopw   %cs:0x0(%rax,%rax,1)
    122d:	00 00 00 

0000000000001230 <frame_dummy>:
    1230:	48 8d 3d b1 2b 20 00 	lea    0x202bb1(%rip),%rdi        # 203de8 <__JCR_END__>
    1237:	48 83 3f 00          	cmpq   $0x0,(%rdi)
    123b:	75 0b                	jne    1248 <frame_dummy+0x18>
    123d:	e9 5e ff ff ff       	jmpq   11a0 <register_tm_clones>
    1242:	66 0f 1f 44 00 00    	nopw   0x0(%rax,%rax,1)
    1248:	48 8b 05 99 2d 20 00 	mov    0x202d99(%rip),%rax        # 203fe8 <_Jv_RegisterClasses>
    124f:	48 85 c0             	test   %rax,%rax
    1252:	74 e9                	je     123d <frame_dummy+0xd>
    1254:	55                   	push   %rbp
    1255:	48 89 e5             	mov    %rsp,%rbp
    1258:	ff d0                	callq  *%rax
    125a:	5d                   	pop    %rbp
    125b:	e9 40 ff ff ff       	jmpq   11a0 <register_tm_clones>

0000000000001260 <main>:
    1260:	53                   	push   %rbx
    1261:	83 ff 01             	cmp    $0x1,%edi
    1264:	0f 84 f8 00 00 00    	je     1362 <main+0x102>
    126a:	48 89 f3             	mov    %rsi,%rbx
    126d:	83 ff 02             	cmp    $0x2,%edi
    1270:	0f 85 1c 01 00 00    	jne    1392 <main+0x132>
    1276:	48 8b 7e 08          	mov    0x8(%rsi),%rdi
    127a:	48 8d 35 79 14 00 00 	lea    0x1479(%rip),%rsi        # 26fa <array.3089+0x25a>
    1281:	e8 0a fe ff ff       	callq  1090 <fopen@plt>
    1286:	48 89 05 73 35 20 00 	mov    %rax,0x203573(%rip)        # 204800 <infile>
    128d:	48 85 c0             	test   %rax,%rax
    1290:	0f 84 df 00 00 00    	je     1375 <main+0x115>
    1296:	e8 b0 06 00 00       	callq  194b <initialize_bomb>
    129b:	48 8d 3d a6 10 00 00 	lea    0x10a6(%rip),%rdi        # 2348 <_IO_stdin_used+0x88>
    12a2:	e8 a9 fc ff ff       	callq  f50 <puts@plt>
    12a7:	48 8d 3d da 10 00 00 	lea    0x10da(%rip),%rdi        # 2388 <_IO_stdin_used+0xc8>
    12ae:	e8 9d fc ff ff       	callq  f50 <puts@plt>
    12b3:	e8 ee 0d 00 00       	callq  20a6 <read_line>
    12b8:	48 89 c7             	mov    %rax,%rdi
    12bb:	e8 f0 00 00 00       	callq  13b0 <phase_1>
    12c0:	e8 e2 0e 00 00       	callq  21a7 <phase_defused>
    12c5:	48 8d 3d ec 10 00 00 	lea    0x10ec(%rip),%rdi        # 23b8 <_IO_stdin_used+0xf8>
    12cc:	e8 7f fc ff ff       	callq  f50 <puts@plt>
    12d1:	e8 d0 0d 00 00       	callq  20a6 <read_line>
    12d6:	48 89 c7             	mov    %rax,%rdi
    12d9:	e8 f2 00 00 00       	callq  13d0 <phase_2>
    12de:	e8 c4 0e 00 00       	callq  21a7 <phase_defused>
    12e3:	48 8d 3d 11 10 00 00 	lea    0x1011(%rip),%rdi        # 22fb <_IO_stdin_used+0x3b>
    12ea:	e8 61 fc ff ff       	callq  f50 <puts@plt>
    12ef:	e8 b2 0d 00 00       	callq  20a6 <read_line>
    12f4:	48 89 c7             	mov    %rax,%rdi
    12f7:	e8 0f 01 00 00       	callq  140b <phase_3>
    12fc:	e8 a6 0e 00 00       	callq  21a7 <phase_defused>
    1301:	48 8d 3d 11 10 00 00 	lea    0x1011(%rip),%rdi        # 2319 <_IO_stdin_used+0x59>
    1308:	e8 43 fc ff ff       	callq  f50 <puts@plt>
    130d:	e8 94 0d 00 00       	callq  20a6 <read_line>
    1312:	48 89 c7             	mov    %rax,%rdi
    1315:	e8 66 02 00 00       	callq  1580 <phase_4>
    131a:	e8 88 0e 00 00       	callq  21a7 <phase_defused>
    131f:	48 8d 3d c2 10 00 00 	lea    0x10c2(%rip),%rdi        # 23e8 <_IO_stdin_used+0x128>
    1326:	e8 25 fc ff ff       	callq  f50 <puts@plt>
    132b:	e8 76 0d 00 00       	callq  20a6 <read_line>
    1330:	48 89 c7             	mov    %rax,%rdi
    1333:	e8 8f 02 00 00       	callq  15c7 <phase_5>
    1338:	e8 6a 0e 00 00       	callq  21a7 <phase_defused>
    133d:	48 8d 3d e4 0f 00 00 	lea    0xfe4(%rip),%rdi        # 2328 <_IO_stdin_used+0x68>
    1344:	e8 07 fc ff ff       	callq  f50 <puts@plt>
    1349:	e8 58 0d 00 00       	callq  20a6 <read_line>
    134e:	48 89 c7             	mov    %rax,%rdi
    1351:	e8 51 03 00 00       	callq  16a7 <phase_6>
    1356:	e8 4c 0e 00 00       	callq  21a7 <phase_defused>
    135b:	b8 00 00 00 00       	mov    $0x0,%eax
    1360:	5b                   	pop    %rbx
    1361:	c3                   	retq   
    1362:	48 8b 05 87 34 20 00 	mov    0x203487(%rip),%rax        # 2047f0 <stdin@@GLIBC_2.2.5>
    1369:	48 89 05 90 34 20 00 	mov    %rax,0x203490(%rip)        # 204800 <infile>
    1370:	e9 21 ff ff ff       	jmpq   1296 <main+0x36>
    1375:	48 8b 53 08          	mov    0x8(%rbx),%rdx
    1379:	48 8b 33             	mov    (%rbx),%rsi
    137c:	48 8d 3d 41 0f 00 00 	lea    0xf41(%rip),%rdi        # 22c4 <_IO_stdin_used+0x4>
    1383:	e8 08 fc ff ff       	callq  f90 <printf@plt>
    1388:	bf 08 00 00 00       	mov    $0x8,%edi
    138d:	e8 2e fd ff ff       	callq  10c0 <exit@plt>
    1392:	48 8b 36             	mov    (%rsi),%rsi
    1395:	48 8d 3d 45 0f 00 00 	lea    0xf45(%rip),%rdi        # 22e1 <_IO_stdin_used+0x21>
    139c:	b8 00 00 00 00       	mov    $0x0,%eax
    13a1:	e8 ea fb ff ff       	callq  f90 <printf@plt>
    13a6:	bf 08 00 00 00       	mov    $0x8,%edi
    13ab:	e8 10 fd ff ff       	callq  10c0 <exit@plt>

00000000000013b0 <phase_1>:
    13b0:	48 83 ec 08          	sub    $0x8,%rsp
    13b4:	48 8d 35 55 10 00 00 	lea    0x1055(%rip),%rsi        # 2410 <_IO_stdin_used+0x150>
    13bb:	e8 59 04 00 00       	callq  1819 <strings_not_equal>
    13c0:	85 c0                	test   %eax,%eax
    13c2:	75 05                	jne    13c9 <phase_1+0x19>
    13c4:	48 83 c4 08          	add    $0x8,%rsp
    13c8:	c3                   	retq   
    13c9:	e8 5b 0c 00 00       	callq  2029 <explode_bomb>
    13ce:	eb f4                	jmp    13c4 <phase_1+0x14>

00000000000013d0 <phase_2>:
    13d0:	55                   	push   %rbp
    13d1:	53                   	push   %rbx
    13d2:	48 83 ec 28          	sub    $0x28,%rsp
    13d6:	48 89 e5             	mov    %rsp,%rbp
    13d9:	48 89 e6             	mov    %rsp,%rsi
    13dc:	e8 84 0c 00 00       	callq  2065 <read_six_numbers>
    13e1:	48 89 e3             	mov    %rsp,%rbx
    13e4:	48 83 c5 14          	add    $0x14,%rbp
    13e8:	eb 09                	jmp    13f3 <phase_2+0x23>
    13ea:	48 83 c3 04          	add    $0x4,%rbx
    13ee:	48 39 eb             	cmp    %rbp,%rbx
    13f1:	74 11                	je     1404 <phase_2+0x34>
    13f3:	8b 03                	mov    (%rbx),%eax
    13f5:	83 c0 05             	add    $0x5,%eax
    13f8:	39 43 04             	cmp    %eax,0x4(%rbx)
    13fb:	74 ed                	je     13ea <phase_2+0x1a>
    13fd:	e8 27 0c 00 00       	callq  2029 <explode_bomb>
    1402:	eb e6                	jmp    13ea <phase_2+0x1a>
    1404:	48 83 c4 28          	add    $0x28,%rsp
    1408:	5b                   	pop    %rbx
    1409:	5d                   	pop    %rbp
    140a:	c3                   	retq   

000000000000140b <phase_3>:
    140b:	48 83 ec 18          	sub    $0x18,%rsp
    140f:	48 8d 4c 24 07       	lea    0x7(%rsp),%rcx
    1414:	48 8d 54 24 0c       	lea    0xc(%rsp),%rdx
    1419:	4c 8d 44 24 08       	lea    0x8(%rsp),%r8
    141e:	48 8d 35 49 10 00 00 	lea    0x1049(%rip),%rsi        # 246e <_IO_stdin_used+0x1ae>
    1425:	b8 00 00 00 00       	mov    $0x0,%eax
    142a:	e8 31 fc ff ff       	callq  1060 <__isoc99_sscanf@plt>
    142f:	83 f8 02             	cmp    $0x2,%eax
    1432:	7e 1f                	jle    1453 <phase_3+0x48>
    1434:	83 7c 24 0c 07       	cmpl   $0x7,0xc(%rsp)
    1439:	0f 87 0c 01 00 00    	ja     154b <phase_3+0x140>
    143f:	8b 44 24 0c          	mov    0xc(%rsp),%eax
    1443:	48 8d 15 36 10 00 00 	lea    0x1036(%rip),%rdx        # 2480 <_IO_stdin_used+0x1c0>
    144a:	48 63 04 82          	movslq (%rdx,%rax,4),%rax
    144e:	48 01 d0             	add    %rdx,%rax
    1451:	ff e0                	jmpq   *%rax
    1453:	e8 d1 0b 00 00       	callq  2029 <explode_bomb>
    1458:	eb da                	jmp    1434 <phase_3+0x29>
    145a:	b8 71 00 00 00       	mov    $0x71,%eax
    145f:	81 7c 24 08 c3 00 00 	cmpl   $0xc3,0x8(%rsp)
    1466:	00 
    1467:	0f 84 e8 00 00 00    	je     1555 <phase_3+0x14a>
    146d:	e8 b7 0b 00 00       	callq  2029 <explode_bomb>
    1472:	b8 71 00 00 00       	mov    $0x71,%eax
    1477:	e9 d9 00 00 00       	jmpq   1555 <phase_3+0x14a>
    147c:	b8 62 00 00 00       	mov    $0x62,%eax
    1481:	81 7c 24 08 1b 02 00 	cmpl   $0x21b,0x8(%rsp)
    1488:	00 
    1489:	0f 84 c6 00 00 00    	je     1555 <phase_3+0x14a>
    148f:	e8 95 0b 00 00       	callq  2029 <explode_bomb>
    1494:	b8 62 00 00 00       	mov    $0x62,%eax
    1499:	e9 b7 00 00 00       	jmpq   1555 <phase_3+0x14a>
    149e:	b8 65 00 00 00       	mov    $0x65,%eax
    14a3:	81 7c 24 08 6d 01 00 	cmpl   $0x16d,0x8(%rsp)
    14aa:	00 
    14ab:	0f 84 a4 00 00 00    	je     1555 <phase_3+0x14a>
    14b1:	e8 73 0b 00 00       	callq  2029 <explode_bomb>
    14b6:	b8 65 00 00 00       	mov    $0x65,%eax
    14bb:	e9 95 00 00 00       	jmpq   1555 <phase_3+0x14a>
    14c0:	b8 6d 00 00 00       	mov    $0x6d,%eax
    14c5:	81 7c 24 08 4c 02 00 	cmpl   $0x24c,0x8(%rsp)
    14cc:	00 
    14cd:	0f 84 82 00 00 00    	je     1555 <phase_3+0x14a>
    14d3:	e8 51 0b 00 00       	callq  2029 <explode_bomb>
    14d8:	b8 6d 00 00 00       	mov    $0x6d,%eax
    14dd:	eb 76                	jmp    1555 <phase_3+0x14a>
    14df:	b8 6c 00 00 00       	mov    $0x6c,%eax
    14e4:	81 7c 24 08 d3 01 00 	cmpl   $0x1d3,0x8(%rsp)
    14eb:	00 
    14ec:	74 67                	je     1555 <phase_3+0x14a>
    14ee:	e8 36 0b 00 00       	callq  2029 <explode_bomb>
    14f3:	b8 6c 00 00 00       	mov    $0x6c,%eax
    14f8:	eb 5b                	jmp    1555 <phase_3+0x14a>
    14fa:	b8 75 00 00 00       	mov    $0x75,%eax
    14ff:	81 7c 24 08 f7 01 00 	cmpl   $0x1f7,0x8(%rsp)
    1506:	00 
    1507:	74 4c                	je     1555 <phase_3+0x14a>
    1509:	e8 1b 0b 00 00       	callq  2029 <explode_bomb>
    150e:	b8 75 00 00 00       	mov    $0x75,%eax
    1513:	eb 40                	jmp    1555 <phase_3+0x14a>
    1515:	b8 6b 00 00 00       	mov    $0x6b,%eax
    151a:	81 7c 24 08 d7 03 00 	cmpl   $0x3d7,0x8(%rsp)
    1521:	00 
    1522:	74 31                	je     1555 <phase_3+0x14a>
    1524:	e8 00 0b 00 00       	callq  2029 <explode_bomb>
    1529:	b8 6b 00 00 00       	mov    $0x6b,%eax
    152e:	eb 25                	jmp    1555 <phase_3+0x14a>
    1530:	b8 65 00 00 00       	mov    $0x65,%eax
    1535:	81 7c 24 08 c1 02 00 	cmpl   $0x2c1,0x8(%rsp)
    153c:	00 
    153d:	74 16                	je     1555 <phase_3+0x14a>
    153f:	e8 e5 0a 00 00       	callq  2029 <explode_bomb>
    1544:	b8 65 00 00 00       	mov    $0x65,%eax
    1549:	eb 0a                	jmp    1555 <phase_3+0x14a>
    154b:	e8 d9 0a 00 00       	callq  2029 <explode_bomb>
    1550:	b8 68 00 00 00       	mov    $0x68,%eax
    1555:	3a 44 24 07          	cmp    0x7(%rsp),%al
    1559:	74 05                	je     1560 <phase_3+0x155>
    155b:	e8 c9 0a 00 00       	callq  2029 <explode_bomb>
    1560:	48 83 c4 18          	add    $0x18,%rsp
    1564:	c3                   	retq   

0000000000001565 <func4>:
    1565:	b8 01 00 00 00       	mov    $0x1,%eax
    156a:	83 ff 01             	cmp    $0x1,%edi
    156d:	7e 0f                	jle    157e <func4+0x19>
    156f:	53                   	push   %rbx
    1570:	89 fb                	mov    %edi,%ebx
    1572:	8d 7f ff             	lea    -0x1(%rdi),%edi
    1575:	e8 eb ff ff ff       	callq  1565 <func4>
    157a:	0f af c3             	imul   %ebx,%eax
    157d:	5b                   	pop    %rbx
    157e:	f3 c3                	repz retq 

0000000000001580 <phase_4>:
    1580:	48 83 ec 18          	sub    $0x18,%rsp
    1584:	48 8d 54 24 0c       	lea    0xc(%rsp),%rdx
    1589:	48 8d 35 e4 0e 00 00 	lea    0xee4(%rip),%rsi        # 2474 <_IO_stdin_used+0x1b4>
    1590:	b8 00 00 00 00       	mov    $0x0,%eax
    1595:	e8 c6 fa ff ff       	callq  1060 <__isoc99_sscanf@plt>
    159a:	83 f8 01             	cmp    $0x1,%eax
    159d:	74 1f                	je     15be <phase_4+0x3e>
    159f:	e8 85 0a 00 00       	callq  2029 <explode_bomb>
    15a4:	8b 7c 24 0c          	mov    0xc(%rsp),%edi
    15a8:	e8 b8 ff ff ff       	callq  1565 <func4>
    15ad:	3d d0 02 00 00       	cmp    $0x2d0,%eax
    15b2:	74 05                	je     15b9 <phase_4+0x39>
    15b4:	e8 70 0a 00 00       	callq  2029 <explode_bomb>
    15b9:	48 83 c4 18          	add    $0x18,%rsp
    15bd:	c3                   	retq   
    15be:	83 7c 24 0c 00       	cmpl   $0x0,0xc(%rsp)
    15c3:	7f df                	jg     15a4 <phase_4+0x24>
    15c5:	eb d8                	jmp    159f <phase_4+0x1f>

00000000000015c7 <phase_5>:
    15c7:	48 83 ec 18          	sub    $0x18,%rsp
    15cb:	48 8d 4c 24 08       	lea    0x8(%rsp),%rcx
    15d0:	48 8d 54 24 0c       	lea    0xc(%rsp),%rdx
    15d5:	48 8d 35 27 12 00 00 	lea    0x1227(%rip),%rsi        # 2803 <array.3089+0x363>
    15dc:	b8 00 00 00 00       	mov    $0x0,%eax
    15e1:	e8 7a fa ff ff       	callq  1060 <__isoc99_sscanf@plt>
    15e6:	83 f8 01             	cmp    $0x1,%eax
    15e9:	7e 4d                	jle    1638 <phase_5+0x71>
    15eb:	8b 44 24 0c          	mov    0xc(%rsp),%eax
    15ef:	83 e0 0f             	and    $0xf,%eax
    15f2:	89 44 24 0c          	mov    %eax,0xc(%rsp)
    15f6:	83 f8 0f             	cmp    $0xf,%eax
    15f9:	74 33                	je     162e <phase_5+0x67>
    15fb:	b9 00 00 00 00       	mov    $0x0,%ecx
    1600:	ba 00 00 00 00       	mov    $0x0,%edx
    1605:	48 8d 35 94 0e 00 00 	lea    0xe94(%rip),%rsi        # 24a0 <array.3089>
    160c:	83 c2 01             	add    $0x1,%edx
    160f:	48 98                	cltq   
    1611:	8b 04 86             	mov    (%rsi,%rax,4),%eax
    1614:	01 c1                	add    %eax,%ecx
    1616:	83 f8 0f             	cmp    $0xf,%eax
    1619:	75 f1                	jne    160c <phase_5+0x45>
    161b:	c7 44 24 0c 0f 00 00 	movl   $0xf,0xc(%rsp)
    1622:	00 
    1623:	83 fa 0a             	cmp    $0xa,%edx
    1626:	75 06                	jne    162e <phase_5+0x67>
    1628:	3b 4c 24 08          	cmp    0x8(%rsp),%ecx
    162c:	74 05                	je     1633 <phase_5+0x6c>
    162e:	e8 f6 09 00 00       	callq  2029 <explode_bomb>
    1633:	48 83 c4 18          	add    $0x18,%rsp
    1637:	c3                   	retq   
    1638:	e8 ec 09 00 00       	callq  2029 <explode_bomb>
    163d:	eb ac                	jmp    15eb <phase_5+0x24>

000000000000163f <fun6>:
    163f:	48 89 f8             	mov    %rdi,%rax
    1642:	4c 8b 47 08          	mov    0x8(%rdi),%r8
    1646:	48 c7 47 08 00 00 00 	movq   $0x0,0x8(%rdi)
    164d:	00 
    164e:	48 89 fa             	mov    %rdi,%rdx
    1651:	4d 85 c0             	test   %r8,%r8
    1654:	75 2e                	jne    1684 <fun6+0x45>
    1656:	f3 c3                	repz retq 
    1658:	48 89 d1             	mov    %rdx,%rcx
    165b:	48 8b 51 08          	mov    0x8(%rcx),%rdx
    165f:	48 85 d2             	test   %rdx,%rdx
    1662:	74 04                	je     1668 <fun6+0x29>
    1664:	39 32                	cmp    %esi,(%rdx)
    1666:	7f f0                	jg     1658 <fun6+0x19>
    1668:	48 39 d1             	cmp    %rdx,%rcx
    166b:	74 33                	je     16a0 <fun6+0x61>
    166d:	4c 89 41 08          	mov    %r8,0x8(%rcx)
    1671:	49 8b 48 08          	mov    0x8(%r8),%rcx
    1675:	49 89 50 08          	mov    %rdx,0x8(%r8)
    1679:	48 89 c2             	mov    %rax,%rdx
    167c:	49 89 c8             	mov    %rcx,%r8
    167f:	48 85 c9             	test   %rcx,%rcx
    1682:	74 21                	je     16a5 <fun6+0x66>
    1684:	48 85 d2             	test   %rdx,%rdx
    1687:	74 12                	je     169b <fun6+0x5c>
    1689:	41 8b 30             	mov    (%r8),%esi
    168c:	48 89 c1             	mov    %rax,%rcx
    168f:	39 32                	cmp    %esi,(%rdx)
    1691:	7f c8                	jg     165b <fun6+0x1c>
    1693:	48 89 c2             	mov    %rax,%rdx
    1696:	4c 89 c0             	mov    %r8,%rax
    1699:	eb d6                	jmp    1671 <fun6+0x32>
    169b:	48 89 c1             	mov    %rax,%rcx
    169e:	eb c8                	jmp    1668 <fun6+0x29>
    16a0:	4c 89 c0             	mov    %r8,%rax
    16a3:	eb cc                	jmp    1671 <fun6+0x32>
    16a5:	f3 c3                	repz retq 

00000000000016a7 <phase_6>:
    16a7:	48 83 ec 08          	sub    $0x8,%rsp
    16ab:	ba 0a 00 00 00       	mov    $0xa,%edx
    16b0:	be 00 00 00 00       	mov    $0x0,%esi
    16b5:	e8 76 f9 ff ff       	callq  1030 <strtol@plt>
    16ba:	89 05 90 30 20 00    	mov    %eax,0x203090(%rip)        # 204750 <node0>
    16c0:	48 8d 3d 89 30 20 00 	lea    0x203089(%rip),%rdi        # 204750 <node0>
    16c7:	e8 73 ff ff ff       	callq  163f <fun6>
    16cc:	ba 08 00 00 00       	mov    $0x8,%edx
    16d1:	48 8b 40 08          	mov    0x8(%rax),%rax
    16d5:	83 ea 01             	sub    $0x1,%edx
    16d8:	75 f7                	jne    16d1 <phase_6+0x2a>
    16da:	8b 0d 70 30 20 00    	mov    0x203070(%rip),%ecx        # 204750 <node0>
    16e0:	39 08                	cmp    %ecx,(%rax)
    16e2:	74 05                	je     16e9 <phase_6+0x42>
    16e4:	e8 40 09 00 00       	callq  2029 <explode_bomb>
    16e9:	48 83 c4 08          	add    $0x8,%rsp
    16ed:	c3                   	retq   

00000000000016ee <fun7>:
    16ee:	48 85 ff             	test   %rdi,%rdi
    16f1:	74 32                	je     1725 <fun7+0x37>
    16f3:	48 83 ec 08          	sub    $0x8,%rsp
    16f7:	8b 17                	mov    (%rdi),%edx
    16f9:	39 f2                	cmp    %esi,%edx
    16fb:	7f 1b                	jg     1718 <fun7+0x2a>
    16fd:	b8 00 00 00 00       	mov    $0x0,%eax
    1702:	39 f2                	cmp    %esi,%edx
    1704:	74 0d                	je     1713 <fun7+0x25>
    1706:	48 8b 7f 10          	mov    0x10(%rdi),%rdi
    170a:	e8 df ff ff ff       	callq  16ee <fun7>
    170f:	8d 44 00 01          	lea    0x1(%rax,%rax,1),%eax
    1713:	48 83 c4 08          	add    $0x8,%rsp
    1717:	c3                   	retq   
    1718:	48 8b 7f 08          	mov    0x8(%rdi),%rdi
    171c:	e8 cd ff ff ff       	callq  16ee <fun7>
    1721:	01 c0                	add    %eax,%eax
    1723:	eb ee                	jmp    1713 <fun7+0x25>
    1725:	b8 ff ff ff ff       	mov    $0xffffffff,%eax
    172a:	c3                   	retq   

000000000000172b <secret_phase>:
    172b:	53                   	push   %rbx
    172c:	e8 75 09 00 00       	callq  20a6 <read_line>
    1731:	ba 0a 00 00 00       	mov    $0xa,%edx
    1736:	be 00 00 00 00       	mov    $0x0,%esi
    173b:	48 89 c7             	mov    %rax,%rdi
    173e:	e8 ed f8 ff ff       	callq  1030 <strtol@plt>
    1743:	48 89 c3             	mov    %rax,%rbx
    1746:	8d 40 ff             	lea    -0x1(%rax),%eax
    1749:	3d e8 03 00 00       	cmp    $0x3e8,%eax
    174e:	77 2b                	ja     177b <secret_phase+0x50>
    1750:	89 de                	mov    %ebx,%esi
    1752:	48 8d 3d 17 2f 20 00 	lea    0x202f17(%rip),%rdi        # 204670 <n1>
    1759:	e8 90 ff ff ff       	callq  16ee <fun7>
    175e:	83 f8 01             	cmp    $0x1,%eax
    1761:	74 05                	je     1768 <secret_phase+0x3d>
    1763:	e8 c1 08 00 00       	callq  2029 <explode_bomb>
    1768:	48 8d 3d d9 0c 00 00 	lea    0xcd9(%rip),%rdi        # 2448 <_IO_stdin_used+0x188>
    176f:	e8 dc f7 ff ff       	callq  f50 <puts@plt>
    1774:	e8 2e 0a 00 00       	callq  21a7 <phase_defused>
    1779:	5b                   	pop    %rbx
    177a:	c3                   	retq   
    177b:	e8 a9 08 00 00       	callq  2029 <explode_bomb>
    1780:	eb ce                	jmp    1750 <secret_phase+0x25>

0000000000001782 <sig_handler>:
    1782:	48 83 ec 08          	sub    $0x8,%rsp
    1786:	48 8d 3d 53 0d 00 00 	lea    0xd53(%rip),%rdi        # 24e0 <array.3089+0x40>
    178d:	e8 be f7 ff ff       	callq  f50 <puts@plt>
    1792:	bf 03 00 00 00       	mov    $0x3,%edi
    1797:	e8 54 f9 ff ff       	callq  10f0 <sleep@plt>
    179c:	48 8d 3d 75 0e 00 00 	lea    0xe75(%rip),%rdi        # 2618 <array.3089+0x178>
    17a3:	b8 00 00 00 00       	mov    $0x0,%eax
    17a8:	e8 e3 f7 ff ff       	callq  f90 <printf@plt>
    17ad:	48 8b 3d 2c 30 20 00 	mov    0x20302c(%rip),%rdi        # 2047e0 <stdout@@GLIBC_2.2.5>
    17b4:	e8 97 f8 ff ff       	callq  1050 <fflush@plt>
    17b9:	bf 01 00 00 00       	mov    $0x1,%edi
    17be:	e8 2d f9 ff ff       	callq  10f0 <sleep@plt>
    17c3:	48 8d 3d 56 0e 00 00 	lea    0xe56(%rip),%rdi        # 2620 <array.3089+0x180>
    17ca:	e8 81 f7 ff ff       	callq  f50 <puts@plt>
    17cf:	bf 10 00 00 00       	mov    $0x10,%edi
    17d4:	e8 e7 f8 ff ff       	callq  10c0 <exit@plt>

00000000000017d9 <invalid_phase>:
    17d9:	48 83 ec 08          	sub    $0x8,%rsp
    17dd:	48 89 fe             	mov    %rdi,%rsi
    17e0:	48 8d 3d 41 0e 00 00 	lea    0xe41(%rip),%rdi        # 2628 <array.3089+0x188>
    17e7:	b8 00 00 00 00       	mov    $0x0,%eax
    17ec:	e8 9f f7 ff ff       	callq  f90 <printf@plt>
    17f1:	bf 08 00 00 00       	mov    $0x8,%edi
    17f6:	e8 c5 f8 ff ff       	callq  10c0 <exit@plt>

00000000000017fb <string_length>:
    17fb:	80 3f 00             	cmpb   $0x0,(%rdi)
    17fe:	74 13                	je     1813 <string_length+0x18>
    1800:	b8 00 00 00 00       	mov    $0x0,%eax
    1805:	48 83 c7 01          	add    $0x1,%rdi
    1809:	83 c0 01             	add    $0x1,%eax
    180c:	80 3f 00             	cmpb   $0x0,(%rdi)
    180f:	75 f4                	jne    1805 <string_length+0xa>
    1811:	f3 c3                	repz retq 
    1813:	b8 00 00 00 00       	mov    $0x0,%eax
    1818:	c3                   	retq   

0000000000001819 <strings_not_equal>:
    1819:	41 54                	push   %r12
    181b:	55                   	push   %rbp
    181c:	53                   	push   %rbx
    181d:	48 89 fb             	mov    %rdi,%rbx
    1820:	48 89 f5             	mov    %rsi,%rbp
    1823:	e8 d3 ff ff ff       	callq  17fb <string_length>
    1828:	41 89 c4             	mov    %eax,%r12d
    182b:	48 89 ef             	mov    %rbp,%rdi
    182e:	e8 c8 ff ff ff       	callq  17fb <string_length>
    1833:	ba 01 00 00 00       	mov    $0x1,%edx
    1838:	41 39 c4             	cmp    %eax,%r12d
    183b:	74 07                	je     1844 <strings_not_equal+0x2b>
    183d:	89 d0    tep            	mov    %edx,%eax
    183f:	5b                   	pop    %rbx
    1840:	5d                   	pop    %rbp
    1841:	41 5c                	pop    %r12
    1843:	c3                   	retq   
    1844:	0f b6 03             	movzbl (%rbx),%eax
    1847:	84 c0                	test   %al,%al
    1849:	74 27                	je     1872 <strings_not_equal+0x59>
    184b:	3a 45 00             	cmp    0x0(%rbp),%al
    184e:	75 29                	jne    1879 <strings_not_equal+0x60>
    1850:	48 83 c3 01          	add    $0x1,%rbx
    1854:	48 83 c5 01          	add    $0x1,%rbp
    1858:	0f b6 03             	movzbl (%rbx),%eax
    185b:	84 c0                	test   %al,%al
    185d:	74 0c                	je     186b <strings_not_equal+0x52>
    185f:	3a 45 00             	cmp    0x0(%rbp),%al
    1862:	74 ec                	je     1850 <strings_not_equal+0x37>
    1864:	ba 01 00 00 00       	mov    $0x1,%edx
    1869:	eb d2                	jmp    183d <strings_not_equal+0x24>
    186b:	ba 00 00 00 00       	mov    $0x0,%edx
    1870:	eb cb                	jmp    183d <strings_not_equal+0x24>
    1872:	ba 00 00 00 00       	mov    $0x0,%edx
    1877:	eb c4                	jmp    183d <strings_not_equal+0x24>
    1879:	ba 01 00 00 00       	mov    $0x1,%edx
    187e:	eb bd                	jmp    183d <strings_not_equal+0x24>

0000000000001880 <open_clientfd>:
    1880:	41 54                	push   %r12
    1882:	55                   	push   %rbp
    1883:	53                   	push   %rbx
    1884:	48 83 ec 10          	sub    $0x10,%rsp
    1888:	49 89 fc             	mov    %rdi,%r12
    188b:	89 f3                	mov    %esi,%ebx
    188d:	ba 00 00 00 00       	mov    $0x0,%edx
    1892:	be 01 00 00 00       	mov    $0x1,%esi
    1897:	bf 02 00 00 00       	mov    $0x2,%edi
    189c:	e8 6f f8 ff ff       	callq  1110 <socket@plt>
    18a1:	85 c0                	test   %eax,%eax
    18a3:	78 64                	js     1909 <open_clientfd+0x89>
    18a5:	89 c5                	mov    %eax,%ebp
    18a7:	4c 89 e7             	mov    %r12,%rdi
    18aa:	e8 61 f7 ff ff       	callq  1010 <gethostbyname@plt>
    18af:	48 85 c0             	test   %rax,%rax
    18b2:	74 6b                	je     191f <open_clientfd+0x9f>
    18b4:	48 c7 04 24 00 00 00 	movq   $0x0,(%rsp)
    18bb:	00 
    18bc:	48 c7 44 24 08 00 00 	movq   $0x0,0x8(%rsp)
    18c3:	00 00 
    18c5:	66 c7 04 24 02 00    	movw   $0x2,(%rsp)
    18cb:	48 63 50 14          	movslq 0x14(%rax),%rdx
    18cf:	48 8d 74 24 04       	lea    0x4(%rsp),%rsi
    18d4:	48 8b 40 18          	mov    0x18(%rax),%rax
    18d8:	48 8b 38             	mov    (%rax),%rdi
    18db:	e8 90 f7 ff ff       	callq  1070 <bcopy@plt>
    18e0:	89 de                	mov    %ebx,%esi
    18e2:	66 c1 ce 08          	ror    $0x8,%si
    18e6:	66 89 74 24 02       	mov    %si,0x2(%rsp)
    18eb:	ba 10 00 00 00       	mov    $0x10,%edx
    18f0:	48 89 e6             	mov    %rsp,%rsi
    18f3:	89 ef                	mov    %ebp,%edi
    18f5:	e8 d6 f7 ff ff       	callq  10d0 <connect@plt>
    18fa:	85 c0                	test   %eax,%eax
    18fc:	78 37                	js     1935 <open_clientfd+0xb5>
    18fe:	89 e8                	mov    %ebp,%eax
    1900:	48 83 c4 10          	add    $0x10,%rsp
    1904:	5b                   	pop    %rbx
    1905:	5d                   	pop    %rbp
    1906:	41 5c                	pop    %r12
    1908:	c3                   	retq   
    1909:	48 8d 3d 29 0d 00 00 	lea    0xd29(%rip),%rdi        # 2639 <array.3089+0x199>
    1910:	e8 3b f6 ff ff       	callq  f50 <puts@plt>
    1915:	bf 08 00 00 00       	mov    $0x8,%edi
    191a:	e8 a1 f7 ff ff       	callq  10c0 <exit@plt>
    191f:	48 8d 3d 21 0d 00 00 	lea    0xd21(%rip),%rdi        # 2647 <array.3089+0x1a7>
    1926:	e8 25 f6 ff ff       	callq  f50 <puts@plt>
    192b:	bf 08 00 00 00       	mov    $0x8,%edi
    1930:	e8 8b f7 ff ff       	callq  10c0 <exit@plt>
    1935:	48 8d 3d 19 0d 00 00 	lea    0xd19(%rip),%rdi        # 2655 <array.3089+0x1b5>
    193c:	e8 0f f6 ff ff       	callq  f50 <puts@plt>
    1941:	bf 08 00 00 00       	mov    $0x8,%edi
    1946:	e8 75 f7 ff ff       	callq  10c0 <exit@plt>

000000000000194b <initialize_bomb>:
    194b:	48 83 ec 08          	sub    $0x8,%rsp
    194f:	48 8d 35 2c fe ff ff 	lea    -0x1d4(%rip),%rsi        # 1782 <sig_handler>
    1956:	bf 02 00 00 00       	mov    $0x2,%edi
    195b:	e8 a0 f6 ff ff       	callq  1000 <signal@plt>
    1960:	be 50 00 00 00       	mov    $0x50,%esi
    1965:	48 8d 3d f7 0c 00 00 	lea    0xcf7(%rip),%rdi        # 2663 <array.3089+0x1c3>
    196c:	e8 0f ff ff ff       	callq  1880 <open_clientfd>
    1971:	89 c7                	mov    %eax,%edi
    1973:	e8 48 f6 ff ff       	callq  fc0 <close@plt>
    1978:	48 83 c4 08          	add    $0x8,%rsp
    197c:	c3                   	retq   

000000000000197d <blank_line>:
    197d:	55                   	push   %rbp
    197e:	53                   	push   %rbx
    197f:	48 83 ec 08          	sub    $0x8,%rsp
    1983:	48 89 fd             	mov    %rdi,%rbp
    1986:	0f b6 5d 00          	movzbl 0x0(%rbp),%ebx
    198a:	84 db                	test   %bl,%bl
    198c:	74 1e                	je     19ac <blank_line+0x2f>
    198e:	e8 6d f7 ff ff       	callq  1100 <__ctype_b_loc@plt>
    1993:	48 83 c5 01          	add    $0x1,%rbp
    1997:	48 0f be db          	movsbq %bl,%rbx
    199b:	48 8b 00             	mov    (%rax),%rax
    199e:	f6 44 58 01 20       	testb  $0x20,0x1(%rax,%rbx,2)
    19a3:	75 e1                	jne    1986 <blank_line+0x9>
    19a5:	b8 00 00 00 00       	mov    $0x0,%eax
    19aa:	eb 05                	jmp    19b1 <blank_line+0x34>
    19ac:	b8 01 00 00 00       	mov    $0x1,%eax
    19b1:	48 83 c4 08          	add    $0x8,%rsp
    19b5:	5b                   	pop    %rbx
    19b6:	5d                   	pop    %rbp
    19b7:	c3                   	retq   

00000000000019b8 <skip>:
    19b8:	55                   	push   %rbp
    19b9:	53                   	push   %rbx
    19ba:	48 83 ec 08          	sub    $0x8,%rsp
    19be:	48 8d 2d 5b 2e 20 00 	lea    0x202e5b(%rip),%rbp        # 204820 <input_strings>
    19c5:	48 63 05 30 2e 20 00 	movslq 0x202e30(%rip),%rax        # 2047fc <num_input_strings>
    19cc:	48 8d 3c 80          	lea    (%rax,%rax,4),%rdi
    19d0:	48 c1 e7 04          	shl    $0x4,%rdi
    19d4:	48 01 ef             	add    %rbp,%rdi
    19d7:	48 8b 15 22 2e 20 00 	mov    0x202e22(%rip),%rdx        # 204800 <infile>
    19de:	be 50 00 00 00       	mov    $0x50,%esi
    19e3:	e8 f8 f5 ff ff       	callq  fe0 <fgets@plt>
    19e8:	48 89 c3             	mov    %rax,%rbx
    19eb:	48 85 c0             	test   %rax,%rax
    19ee:	74 0c                	je     19fc <skip+0x44>
    19f0:	48 89 c7             	mov    %rax,%rdi
    19f3:	e8 85 ff ff ff       	callq  197d <blank_line>
    19f8:	85 c0                	test   %eax,%eax
    19fa:	75 c9                	jne    19c5 <skip+0xd>
    19fc:	48 89 d8             	mov    %rbx,%rax
    19ff:	48 83 c4 08          	add    $0x8,%rsp
    1a03:	5b                   	pop    %rbx
    1a04:	5d                   	pop    %rbp
    1a05:	c3                   	retq   

0000000000001a06 <writen>:
    1a06:	41 56                	push   %r14
    1a08:	41 55                	push   %r13
    1a0a:	41 54                	push   %r12
    1a0c:	55                   	push   %rbp
    1a0d:	53                   	push   %rbx
    1a0e:	49 89 d5             	mov    %rdx,%r13
    1a11:	48 85 d2             	test   %rdx,%rdx
    1a14:	74 3b                	je     1a51 <writen+0x4b>
    1a16:	41 89 fc             	mov    %edi,%r12d
    1a19:	48 89 f5             	mov    %rsi,%rbp
    1a1c:	48 89 d3             	mov    %rdx,%rbx
    1a1f:	41 be 00 00 00 00    	mov    $0x0,%r14d
    1a25:	eb 08                	jmp    1a2f <writen+0x29>
    1a27:	48 01 c5             	add    %rax,%rbp
    1a2a:	48 29 c3             	sub    %rax,%rbx
    1a2d:	74 22                	je     1a51 <writen+0x4b>
    1a2f:	48 89 da             	mov    %rbx,%rdx
    1a32:	48 89 ee             	mov    %rbp,%rsi
    1a35:	44 89 e7             	mov    %r12d,%edi
    1a38:	e8 23 f5 ff ff       	callq  f60 <write@plt>
    1a3d:	48 85 c0             	test   %rax,%rax
    1a40:	7f e5                	jg     1a27 <writen+0x21>
    1a42:	e8 e9 f4 ff ff       	callq  f30 <__errno_location@plt>
    1a47:	83 38 04             	cmpl   $0x4,(%rax)
    1a4a:	75 11                	jne    1a5d <writen+0x57>
    1a4c:	4c 89 f0             	mov    %r14,%rax
    1a4f:	eb d6                	jmp    1a27 <writen+0x21>
    1a51:	4c 89 e8             	mov    %r13,%rax
    1a54:	5b                   	pop    %rbx
    1a55:	5d                   	pop    %rbp
    1a56:	41 5c                	pop    %r12
    1a58:	41 5d                	pop    %r13
    1a5a:	41 5e                	pop    %r14
    1a5c:	c3                   	retq   
    1a5d:	48 c7 c0 ff ff ff ff 	mov    $0xffffffffffffffff,%rax
    1a64:	eb ee                	jmp    1a54 <writen+0x4e>

0000000000001a66 <send_msg>:
    1a66:	41 57                	push   %r15
    1a68:	41 56                	push   %r14
    1a6a:	41 55                	push   %r13
    1a6c:	41 54                	push   %r12
    1a6e:	55                   	push   %rbp
    1a6f:	53                   	push   %rbx
    1a70:	48 81 ec 68 24 00 00 	sub    $0x2468,%rsp
    1a77:	41 89 fc             	mov    %edi,%r12d
    1a7a:	ba 00 00 00 00       	mov    $0x0,%edx
    1a7f:	be 01 00 00 00       	mov    $0x1,%esi
    1a84:	bf 02 00 00 00       	mov    $0x2,%edi
    1a89:	e8 82 f6 ff ff       	callq  1110 <socket@plt>
    1a8e:	41 89 c7             	mov    %eax,%r15d
    1a91:	85 c0                	test   %eax,%eax
    1a93:	0f 88 2a 02 00 00    	js     1cc3 <send_msg+0x25d>
    1a99:	48 c7 84 24 50 24 00 	movq   $0x0,0x2450(%rsp)
    1aa0:	00 00 00 00 00 
    1aa5:	48 c7 84 24 58 24 00 	movq   $0x0,0x2458(%rsp)
    1aac:	00 00 00 00 00 
    1ab1:	66 c7 84 24 50 24 00 	movw   $0x2,0x2450(%rsp)
    1ab8:	00 02 00 
    1abb:	66 c7 84 24 52 24 00 	movw   $0x7ac8,0x2452(%rsp)
    1ac2:	00 c8 7a 
    1ac5:	48 8d 94 24 54 24 00 	lea    0x2454(%rsp),%rdx
    1acc:	00 
    1acd:	48 8d 35 8f 0b 00 00 	lea    0xb8f(%rip),%rsi        # 2663 <array.3089+0x1c3>
    1ad4:	bf 02 00 00 00       	mov    $0x2,%edi
    1ad9:	b8 00 00 00 00       	mov    $0x0,%eax
    1ade:	e8 5d f5 ff ff       	callq  1040 <inet_pton@plt>
    1ae3:	85 c0                	test   %eax,%eax
    1ae5:	0f 88 09 02 00 00    	js     1cf4 <send_msg+0x28e>
    1aeb:	48 8d b4 24 50 24 00 	lea    0x2450(%rsp),%rsi
    1af2:	00 
    1af3:	ba 10 00 00 00       	mov    $0x10,%edx
    1af8:	44 89 ff             	mov    %r15d,%edi
    1afb:	e8 d0 f5 ff ff       	callq  10d0 <connect@plt>
    1b00:	85 c0                	test   %eax,%eax
    1b02:	0f 88 22 02 00 00    	js     1d2a <send_msg+0x2c4>
    1b08:	48 8d 6c 24 50       	lea    0x50(%rsp),%rbp
    1b0d:	48 b8 53 75 62 6a 65 	movabs $0x3a7463656a627553,%rax
    1b14:	63 74 3a 
    1b17:	48 89 44 24 50       	mov    %rax,0x50(%rsp)
    1b1c:	48 b8 20 42 6f 6d 62 	movabs $0x6f6e20626d6f4220,%rax
    1b23:	20 6e 6f 
    1b26:	48 89 44 24 58       	mov    %rax,0x58(%rsp)
    1b2b:	48 b8 74 69 66 69 63 	movabs $0x6974616369666974,%rax
    1b32:	61 74 69 
    1b35:	48 89 44 24 60       	mov    %rax,0x60(%rsp)
    1b3a:	c7 44 24 68 6f 6e 0a 	movl   $0xa6e6f,0x68(%rsp)
    1b41:	00 
    1b42:	48 8d 9c 24 50 04 00 	lea    0x450(%rsp),%rbx
    1b49:	00 
    1b4a:	48 89 ee             	mov    %rbp,%rsi
    1b4d:	48 89 df             	mov    %rbx,%rdi
    1b50:	e8 4b f5 ff ff       	callq  10a0 <strcat@plt>
    1b55:	66 c7 44 24 50 0a 00 	movw   $0xa,0x50(%rsp)
    1b5c:	48 89 ee             	mov    %rbp,%rsi
    1b5f:	48 89 df             	mov    %rbx,%rdi
    1b62:	e8 39 f5 ff ff       	callq  10a0 <strcat@plt>
    1b67:	bf 00 00 00 00       	mov    $0x0,%edi
    1b6c:	e8 0f f5 ff ff       	callq  1080 <cuserid@plt>
    1b71:	48 85 c0             	test   %rax,%rax
    1b74:	0f 84 e6 01 00 00    	je     1d60 <send_msg+0x2fa>
    1b7a:	48 89 e7             	mov    %rsp,%rdi
    1b7d:	48 89 c6             	mov    %rax,%rsi
    1b80:	e8 bb f3 ff ff       	callq  f40 <strcpy@plt>
    1b85:	45 85 e4             	test   %r12d,%r12d
    1b88:	48 8d 05 ea 0a 00 00 	lea    0xaea(%rip),%rax        # 2679 <array.3089+0x1d9>
    1b8f:	4c 8d 0d db 0a 00 00 	lea    0xadb(%rip),%r9        # 2671 <array.3089+0x1d1>
    1b96:	4c 0f 44 c8          	cmove  %rax,%r9
    1b9a:	48 8d 5c 24 50       	lea    0x50(%rsp),%rbx
    1b9f:	48 83 ec 08          	sub    $0x8,%rsp
    1ba3:	8b 05 53 2c 20 00    	mov    0x202c53(%rip),%eax        # 2047fc <num_input_strings>
    1ba9:	50                   	push   %rax
    1baa:	4c 8d 44 24 10       	lea    0x10(%rsp),%r8
    1baf:	8b 0d ab 2a 20 00    	mov    0x202aab(%rip),%ecx        # 204660 <bomb_id>
    1bb5:	48 8d 15 a4 26 20 00 	lea    0x2026a4(%rip),%rdx        # 204260 <lab_id>
    1bbc:	48 8d 35 da 0a 00 00 	lea    0xada(%rip),%rsi        # 269d <array.3089+0x1fd>
    1bc3:	48 89 df             	mov    %rbx,%rdi
    1bc6:	b8 00 00 00 00       	mov    $0x0,%eax
    1bcb:	e8 e0 f4 ff ff       	callq  10b0 <sprintf@plt>
    1bd0:	48 8d bc 24 60 04 00 	lea    0x460(%rsp),%rdi
    1bd7:	00 
    1bd8:	48 89 de             	mov    %rbx,%rsi
    1bdb:	e8 c0 f4 ff ff       	callq  10a0 <strcat@plt>
    1be0:	48 83 c4 10          	add    $0x10,%rsp
    1be4:	83 3d 11 2c 20 00 00 	cmpl   $0x0,0x202c11(%rip)        # 2047fc <num_input_strings>
    1beb:	7e 70                	jle    1c5d <send_msg+0x1f7>
    1bed:	bb 00 00 00 00       	mov    $0x0,%ebx
    1bf2:	4c 8d 35 27 2c 20 00 	lea    0x202c27(%rip),%r14        # 204820 <input_strings>
    1bf9:	49 89 e5             	mov    %rsp,%r13
    1bfc:	48 8d 6c 24 50       	lea    0x50(%rsp),%rbp
    1c01:	4c 8d a4 24 50 04 00 	lea    0x450(%rsp),%r12
    1c08:	00 
    1c09:	48 63 c3             	movslq %ebx,%rax
    1c0c:	48 8d 04 80          	lea    (%rax,%rax,4),%rax
    1c10:	48 c1 e0 04          	shl    $0x4,%rax
    1c14:	4c 01 f0             	add    %r14,%rax
    1c17:	83 c3 01             	add    $0x1,%ebx
    1c1a:	48 83 ec 08          	sub    $0x8,%rsp
    1c1e:	50                   	push   %rax
    1c1f:	41 89 d9             	mov    %ebx,%r9d
    1c22:	4d 89 e8             	mov    %r13,%r8
    1c25:	8b 0d 35 2a 20 00    	mov    0x202a35(%rip),%ecx        # 204660 <bomb_id>
    1c2b:	48 8d 15 2e 26 20 00 	lea    0x20262e(%rip),%rdx        # 204260 <lab_id>
    1c32:	48 8d 35 80 0a 00 00 	lea    0xa80(%rip),%rsi        # 26b9 <array.3089+0x219>
    1c39:	48 89 ef             	mov    %rbp,%rdi
    1c3c:	b8 00 00 00 00       	mov    $0x0,%eax
    1c41:	e8 6a f4 ff ff       	callq  10b0 <sprintf@plt>
    1c46:	48 89 ee             	mov    %rbp,%rsi
    1c49:	4c 89 e7             	mov    %r12,%rdi
    1c4c:	e8 4f f4 ff ff       	callq  10a0 <strcat@plt>
    1c51:	48 83 c4 10          	add    $0x10,%rsp
    1c55:	39 1d a1 2b 20 00    	cmp    %ebx,0x202ba1(%rip)        # 2047fc <num_input_strings>
    1c5b:	7f ac                	jg     1c09 <send_msg+0x1a3>
    1c5d:	48 8d ac 24 50 04 00 	lea    0x450(%rsp),%rbp
    1c64:	00 
    1c65:	49 c7 c4 ff ff ff ff 	mov    $0xffffffffffffffff,%r12
    1c6c:	bb 00 00 00 00       	mov    $0x0,%ebx
    1c71:	4c 89 e1             	mov    %r12,%rcx
    1c74:	48 89 ef             	mov    %rbp,%rdi
    1c77:	89 d8                	mov    %ebx,%eax
    1c79:	f2 ae                	repnz scas %es:(%rdi),%al
    1c7b:	48 f7 d1             	not    %rcx
    1c7e:	4a 8d 14 21          	lea    (%rcx,%r12,1),%rdx
    1c82:	48 89 ee             	mov    %rbp,%rsi
    1c85:	44 89 ff             	mov    %r15d,%edi
    1c88:	e8 79 fd ff ff       	callq  1a06 <writen>
    1c8d:	48 89 c2             	mov    %rax,%rdx
    1c90:	4c 89 e1             	mov    %r12,%rcx
    1c93:	48 89 ef             	mov    %rbp,%rdi
    1c96:	89 d8                	mov    %ebx,%eax
    1c98:	f2 ae                	repnz scas %es:(%rdi),%al
    1c9a:	48 f7 d1             	not    %rcx
    1c9d:	4c 01 e1             	add    %r12,%rcx
    1ca0:	48 39 ca             	cmp    %rcx,%rdx
    1ca3:	0f 82 cf 00 00 00    	jb     1d78 <send_msg+0x312>
    1ca9:	44 89 ff             	mov    %r15d,%edi
    1cac:	e8 0f f3 ff ff       	callq  fc0 <close@plt>
    1cb1:	48 81 c4 68 24 00 00 	add    $0x2468,%rsp
    1cb8:	5b                   	pop    %rbx
    1cb9:	5d                   	pop    %rbp
    1cba:	41 5c                	pop    %r12
    1cbc:	41 5d                	pop    %r13
    1cbe:	41 5e                	pop    %r14
    1cc0:	41 5f                	pop    %r15
    1cc2:	c3                   	retq   
    1cc3:	48 8d 15 b8 09 00 00 	lea    0x9b8(%rip),%rdx        # 2682 <array.3089+0x1e2>
    1cca:	48 8d 35 0c 06 00 00 	lea    0x60c(%rip),%rsi        # 22dd <_IO_stdin_used+0x1d>
    1cd1:	48 8b 3d 08 2b 20 00 	mov    0x202b08(%rip),%rdi        # 2047e0 <stdout@@GLIBC_2.2.5>
    1cd8:	b8 00 00 00 00       	mov    $0x0,%eax
    1cdd:	e8 3e f3 ff ff       	callq  1020 <fprintf@plt>
    1ce2:	44 89 ff             	mov    %r15d,%edi
    1ce5:	e8 d6 f2 ff ff       	callq  fc0 <close@plt>
    1cea:	bf 01 00 00 00       	mov    $0x1,%edi
    1cef:	e8 cc f3 ff ff       	callq  10c0 <exit@plt>
    1cf4:	48 8d 15 fb 09 00 00 	lea    0x9fb(%rip),%rdx        # 26f6 <array.3089+0x256>
    1cfb:	48 8d 35 db 05 00 00 	lea    0x5db(%rip),%rsi        # 22dd <_IO_stdin_used+0x1d>
    1d02:	48 8b 3d d7 2a 20 00 	mov    0x202ad7(%rip),%rdi        # 2047e0 <stdout@@GLIBC_2.2.5>
    1d09:	b8 00 00 00 00       	mov    $0x0,%eax
    1d0e:	e8 0d f3 ff ff       	callq  1020 <fprintf@plt>
    1d13:	45 85 ff             	test   %r15d,%r15d
    1d16:	74 08                	je     1d20 <send_msg+0x2ba>
    1d18:	44 89 ff             	mov    %r15d,%edi
    1d1b:	e8 a0 f2 ff ff       	callq  fc0 <close@plt>
    1d20:	bf 01 00 00 00       	mov    $0x1,%edi
    1d25:	e8 96 f3 ff ff       	callq  10c0 <exit@plt>
    1d2a:	48 8d 15 5e 09 00 00 	lea    0x95e(%rip),%rdx        # 268f <array.3089+0x1ef>
    1d31:	48 8d 35 a5 05 00 00 	lea    0x5a5(%rip),%rsi        # 22dd <_IO_stdin_used+0x1d>
    1d38:	48 8b 3d a1 2a 20 00 	mov    0x202aa1(%rip),%rdi        # 2047e0 <stdout@@GLIBC_2.2.5>
    1d3f:	b8 00 00 00 00       	mov    $0x0,%eax
    1d44:	e8 d7 f2 ff ff       	callq  1020 <fprintf@plt>
    1d49:	45 85 ff             	test   %r15d,%r15d
    1d4c:	74 08                	je     1d56 <send_msg+0x2f0>
    1d4e:	44 89 ff             	mov    %r15d,%edi
    1d51:	e8 6a f2 ff ff       	callq  fc0 <close@plt>
    1d56:	bf 01 00 00 00       	mov    $0x1,%edi
    1d5b:	e8 60 f3 ff ff       	callq  10c0 <exit@plt>
    1d60:	c7 04 24 6e 6f 62 6f 	movl   $0x6f626f6e,(%rsp)
    1d67:	66 c7 44 24 04 64 79 	movw   $0x7964,0x4(%rsp)
    1d6e:	c6 44 24 06 00       	movb   $0x0,0x6(%rsp)
    1d73:	e9 0d fe ff ff       	jmpq   1b85 <send_msg+0x11f>
    1d78:	48 8d 15 56 09 00 00 	lea    0x956(%rip),%rdx        # 26d5 <array.3089+0x235>
    1d7f:	48 8d 35 57 05 00 00 	lea    0x557(%rip),%rsi        # 22dd <_IO_stdin_used+0x1d>
    1d86:	48 8b 3d 53 2a 20 00 	mov    0x202a53(%rip),%rdi        # 2047e0 <stdout@@GLIBC_2.2.5>
    1d8d:	e8 8e f2 ff ff       	callq  1020 <fprintf@plt>
    1d92:	45 85 ff             	test   %r15d,%r15d
    1d95:	74 08                	je     1d9f <send_msg+0x339>
    1d97:	44 89 ff             	mov    %r15d,%edi
    1d9a:	e8 21 f2 ff ff       	callq  fc0 <close@plt>
    1d9f:	bf 01 00 00 00       	mov    $0x1,%edi
    1da4:	e8 17 f3 ff ff       	callq  10c0 <exit@plt>

0000000000001da9 <send_msg_2>:
    1da9:	41 57                	push   %r15
    1dab:	41 56                	push   %r14
    1dad:	41 55                	push   %r13
    1daf:	41 54                	push   %r12
    1db1:	55                   	push   %rbp
    1db2:	53                   	push   %rbx
    1db3:	48 83 ec 68          	sub    $0x68,%rsp
    1db7:	89 fb                	mov    %edi,%ebx
    1db9:	bf 00 00 00 00       	mov    $0x0,%edi
    1dbe:	e8 ed f1 ff ff       	callq  fb0 <dup@plt>
    1dc3:	89 44 24 0c          	mov    %eax,0xc(%rsp)
    1dc7:	83 f8 ff             	cmp    $0xffffffff,%eax
    1dca:	0f 84 a6 01 00 00    	je     1f76 <send_msg_2+0x1cd>
    1dd0:	bf 00 00 00 00       	mov    $0x0,%edi
    1dd5:	e8 e6 f1 ff ff       	callq  fc0 <close@plt>
    1dda:	83 f8 ff             	cmp    $0xffffffff,%eax
    1ddd:	0f 84 a9 01 00 00    	je     1f8c <send_msg_2+0x1e3>
    1de3:	e8 08 f2 ff ff       	callq  ff0 <tmpfile@plt>
    1de8:	48 89 c5             	mov    %rax,%rbp
    1deb:	48 85 c0             	test   %rax,%rax
    1dee:	0f 84 ae 01 00 00    	je     1fa2 <send_msg_2+0x1f9>
    1df4:	48 89 c1             	mov    %rax,%rcx
    1df7:	ba 1b 00 00 00       	mov    $0x1b,%edx
    1dfc:	be 01 00 00 00       	mov    $0x1,%esi
    1e01:	48 8d 3d 1c 09 00 00 	lea    0x91c(%rip),%rdi        # 2724 <array.3089+0x284>
    1e08:	e8 d3 f2 ff ff       	callq  10e0 <fwrite@plt>
    1e0d:	48 89 ee             	mov    %rbp,%rsi
    1e10:	bf 0a 00 00 00       	mov    $0xa,%edi
    1e15:	e8 b6 f1 ff ff       	callq  fd0 <fputc@plt>
    1e1a:	bf 00 00 00 00       	mov    $0x0,%edi
    1e1f:	e8 5c f2 ff ff       	callq  1080 <cuserid@plt>
    1e24:	48 85 c0             	test   %rax,%rax
    1e27:	0f 84 8b 01 00 00    	je     1fb8 <send_msg_2+0x20f>
    1e2d:	48 8d 7c 24 10       	lea    0x10(%rsp),%rdi
    1e32:	48 89 c6             	mov    %rax,%rsi
    1e35:	e8 06 f1 ff ff       	callq  f40 <strcpy@plt>
    1e3a:	85 db                	test   %ebx,%ebx
    1e3c:	48 8d 05 36 08 00 00 	lea    0x836(%rip),%rax        # 2679 <array.3089+0x1d9>
    1e43:	4c 8d 0d 27 08 00 00 	lea    0x827(%rip),%r9        # 2671 <array.3089+0x1d1>
    1e4a:	4c 0f 44 c8          	cmove  %rax,%r9
    1e4e:	48 83 ec 08          	sub    $0x8,%rsp
    1e52:	8b 05 a4 29 20 00    	mov    0x2029a4(%rip),%eax        # 2047fc <num_input_strings>
    1e58:	50                   	push   %rax
    1e59:	4c 8d 44 24 20       	lea    0x20(%rsp),%r8
    1e5e:	8b 0d fc 27 20 00    	mov    0x2027fc(%rip),%ecx        # 204660 <bomb_id>
    1e64:	48 8d 15 f5 23 20 00 	lea    0x2023f5(%rip),%rdx        # 204260 <lab_id>
    1e6b:	48 8d 35 2b 08 00 00 	lea    0x82b(%rip),%rsi        # 269d <array.3089+0x1fd>
    1e72:	48 89 ef             	mov    %rbp,%rdi
    1e75:	b8 00 00 00 00       	mov    $0x0,%eax
    1e7a:	e8 a1 f1 ff ff       	callq  1020 <fprintf@plt>
    1e7f:	48 83 c4 10          	add    $0x10,%rsp
    1e83:	83 3d 72 29 20 00 00 	cmpl   $0x0,0x202972(%rip)        # 2047fc <num_input_strings>
    1e8a:	7e 60                	jle    1eec <send_msg_2+0x143>
    1e8c:	bb 00 00 00 00       	mov    $0x0,%ebx
    1e91:	4c 8d 3d 88 29 20 00 	lea    0x202988(%rip),%r15        # 204820 <input_strings>
    1e98:	4c 8d 74 24 10       	lea    0x10(%rsp),%r14
    1e9d:	4c 8d 2d bc 23 20 00 	lea    0x2023bc(%rip),%r13        # 204260 <lab_id>
    1ea4:	4c 8d 25 0e 08 00 00 	lea    0x80e(%rip),%r12        # 26b9 <array.3089+0x219>
    1eab:	48 63 c3             	movslq %ebx,%rax
    1eae:	48 8d 04 80          	lea    (%rax,%rax,4),%rax
    1eb2:	48 c1 e0 04          	shl    $0x4,%rax
    1eb6:	4c 01 f8             	add    %r15,%rax
    1eb9:	83 c3 01             	add    $0x1,%ebx
    1ebc:	48 83 ec 08          	sub    $0x8,%rsp
    1ec0:	50                   	push   %rax
    1ec1:	41 89 d9             	mov    %ebx,%r9d
    1ec4:	4d 89 f0             	mov    %r14,%r8
    1ec7:	8b 0d 93 27 20 00    	mov    0x202793(%rip),%ecx        # 204660 <bomb_id>
    1ecd:	4c 89 ea             	mov    %r13,%rdx
    1ed0:	4c 89 e6             	mov    %r12,%rsi
    1ed3:	48 89 ef             	mov    %rbp,%rdi
    1ed6:	b8 00 00 00 00       	mov    $0x0,%eax
    1edb:	e8 40 f1 ff ff       	callq  1020 <fprintf@plt>
    1ee0:	48 83 c4 10          	add    $0x10,%rsp
    1ee4:	39 1d 12 29 20 00    	cmp    %ebx,0x202912(%rip)        # 2047fc <num_input_strings>
    1eea:	7f bf                	jg     1eab <send_msg_2+0x102>
    1eec:	48 89 ef             	mov    %rbp,%rdi
    1eef:	e8 ac f0 ff ff       	callq  fa0 <rewind@plt>
    1ef4:	4c 8d 05 45 08 00 00 	lea    0x845(%rip),%r8        # 2740 <array.3089+0x2a0>
    1efb:	48 8d 0d 48 08 00 00 	lea    0x848(%rip),%rcx        # 274a <array.3089+0x2aa>
    1f02:	48 8d 15 49 08 00 00 	lea    0x849(%rip),%rdx        # 2752 <array.3089+0x2b2>
    1f09:	48 8d 35 59 08 00 00 	lea    0x859(%rip),%rsi        # 2769 <array.3089+0x2c9>
    1f10:	48 8d 3d 49 2f 20 00 	lea    0x202f49(%rip),%rdi        # 204e60 <scratch>
    1f17:	b8 00 00 00 00       	mov    $0x0,%eax
    1f1c:	e8 8f f1 ff ff       	callq  10b0 <sprintf@plt>
    1f21:	48 8d 3d 38 2f 20 00 	lea    0x202f38(%rip),%rdi        # 204e60 <scratch>
    1f28:	e8 53 f0 ff ff       	callq  f80 <system@plt>
    1f2d:	85 c0                	test   %eax,%eax
    1f2f:	0f 85 9c 00 00 00    	jne    1fd1 <send_msg_2+0x228>
    1f35:	48 89 ef             	mov    %rbp,%rdi
    1f38:	e8 33 f0 ff ff       	callq  f70 <fclose@plt>
    1f3d:	85 c0                	test   %eax,%eax
    1f3f:	0f 85 a2 00 00 00    	jne    1fe7 <send_msg_2+0x23e>
    1f45:	8b 7c 24 0c          	mov    0xc(%rsp),%edi
    1f49:	e8 62 f0 ff ff       	callq  fb0 <dup@plt>
    1f4e:	85 c0                	test   %eax,%eax
    1f50:	0f 85 a7 00 00 00    	jne    1ffd <send_msg_2+0x254>
    1f56:	8b 7c 24 0c          	mov    0xc(%rsp),%edi
    1f5a:	e8 61 f0 ff ff       	callq  fc0 <close@plt>
    1f5f:	85 c0                	test   %eax,%eax
    1f61:	0f 85 ac 00 00 00    	jne    2013 <send_msg_2+0x26a>
    1f67:	48 83 c4 68          	add    $0x68,%rsp
    1f6b:	5b                   	pop    %rbx
    1f6c:	5d                   	pop    %rbp
    1f6d:	41 5c                	pop    %r12
    1f6f:	41 5d                	pop    %r13
    1f71:	41 5e                	pop    %r14
    1f73:	41 5f                	pop    %r15
    1f75:	c3                   	retq   
    1f76:	48 8d 3d 6b 07 00 00 	lea    0x76b(%rip),%rdi        # 26e8 <array.3089+0x248>
    1f7d:	e8 ce ef ff ff       	callq  f50 <puts@plt>
    1f82:	bf 08 00 00 00       	mov    $0x8,%edi
    1f87:	e8 34 f1 ff ff       	callq  10c0 <exit@plt>
    1f8c:	48 8d 3d 69 07 00 00 	lea    0x769(%rip),%rdi        # 26fc <array.3089+0x25c>
    1f93:	e8 b8 ef ff ff       	callq  f50 <puts@plt>
    1f98:	bf 08 00 00 00       	mov    $0x8,%edi
    1f9d:	e8 1e f1 ff ff       	callq  10c0 <exit@plt>
    1fa2:	48 8d 3d 66 07 00 00 	lea    0x766(%rip),%rdi        # 270f <array.3089+0x26f>
    1fa9:	e8 a2 ef ff ff       	callq  f50 <puts@plt>
    1fae:	bf 08 00 00 00       	mov    $0x8,%edi
    1fb3:	e8 08 f1 ff ff       	callq  10c0 <exit@plt>
    1fb8:	c7 44 24 10 6e 6f 62 	movl   $0x6f626f6e,0x10(%rsp)
    1fbf:	6f 
    1fc0:	66 c7 44 24 14 64 79 	movw   $0x7964,0x14(%rsp)
    1fc7:	c6 44 24 16 00       	movb   $0x0,0x16(%rsp)
    1fcc:	e9 69 fe ff ff       	jmpq   1e3a <send_msg_2+0x91>
    1fd1:	48 8d 3d 9a 07 00 00 	lea    0x79a(%rip),%rdi        # 2772 <array.3089+0x2d2>
    1fd8:	e8 73 ef ff ff       	callq  f50 <puts@plt>
    1fdd:	bf 08 00 00 00       	mov    $0x8,%edi
    1fe2:	e8 d9 f0 ff ff       	callq  10c0 <exit@plt>
    1fe7:	48 8d 3d 9e 07 00 00 	lea    0x79e(%rip),%rdi        # 278c <array.3089+0x2ec>
    1fee:	e8 5d ef ff ff       	callq  f50 <puts@plt>
    1ff3:	bf 08 00 00 00       	mov    $0x8,%edi
    1ff8:	e8 c3 f0 ff ff       	callq  10c0 <exit@plt>
    1ffd:	48 8d 3d a1 07 00 00 	lea    0x7a1(%rip),%rdi        # 27a5 <array.3089+0x305>
    2004:	e8 47 ef ff ff       	callq  f50 <puts@plt>
    2009:	bf 08 00 00 00       	mov    $0x8,%edi
    200e:	e8 ad f0 ff ff       	callq  10c0 <exit@plt>
    2013:	48 8d 3d a6 07 00 00 	lea    0x7a6(%rip),%rdi        # 27c0 <array.3089+0x320>
    201a:	e8 31 ef ff ff       	callq  f50 <puts@plt>
    201f:	bf 08 00 00 00       	mov    $0x8,%edi
    2024:	e8 97 f0 ff ff       	callq  10c0 <exit@plt>

0000000000002029 <explode_bomb>:
    2029:	48 83 ec 08          	sub    $0x8,%rsp
    202d:	48 8d 3d a3 07 00 00 	lea    0x7a3(%rip),%rdi        # 27d7 <array.3089+0x337>
    2034:	e8 17 ef ff ff       	callq  f50 <puts@plt>
    2039:	48 8d 3d a0 07 00 00 	lea    0x7a0(%rip),%rdi        # 27e0 <array.3089+0x340>
    2040:	e8 0b ef ff ff       	callq  f50 <puts@plt>
    2045:	bf 00 00 00 00       	mov    $0x0,%edi
    204a:	e8 17 fa ff ff       	callq  1a66 <send_msg>
    204f:	48 8d 3d c2 04 00 00 	lea    0x4c2(%rip),%rdi        # 2518 <array.3089+0x78>
    2056:	e8 f5 ee ff ff       	callq  f50 <puts@plt>
    205b:	bf 08 00 00 00       	mov    $0x8,%edi
    2060:	e8 5b f0 ff ff       	callq  10c0 <exit@plt>

0000000000002065 <read_six_numbers>:
    2065:	48 83 ec 08          	sub    $0x8,%rsp
    2069:	48 89 f2             	mov    %rsi,%rdx
    206c:	48 8d 4e 04          	lea    0x4(%rsi),%rcx
    2070:	48 8d 46 14          	lea    0x14(%rsi),%rax
    2074:	50                   	push   %rax
    2075:	48 8d 46 10          	lea    0x10(%rsi),%rax
    2079:	50                   	push   %rax
    207a:	4c 8d 4e 0c          	lea    0xc(%rsi),%r9
    207e:	4c 8d 46 08          	lea    0x8(%rsi),%r8
    2082:	48 8d 35 6e 07 00 00 	lea    0x76e(%rip),%rsi        # 27f7 <array.3089+0x357>
    2089:	b8 00 00 00 00       	mov    $0x0,%eax
    208e:	e8 cd ef ff ff       	callq  1060 <__isoc99_sscanf@plt>
    2093:	48 83 c4 10          	add    $0x10,%rsp
    2097:	83 f8 05             	cmp    $0x5,%eax
    209a:	7e 05                	jle    20a1 <read_six_numbers+0x3c>
    209c:	48 83 c4 08          	add    $0x8,%rsp
    20a0:	c3                   	retq   
    20a1:	e8 83 ff ff ff       	callq  2029 <explode_bomb>

00000000000020a6 <read_line>:
    20a6:	48 83 ec 08          	sub    $0x8,%rsp
    20aa:	b8 00 00 00 00       	mov    $0x0,%eax
    20af:	e8 04 f9 ff ff       	callq  19b8 <skip>
    20b4:	48 85 c0             	test   %rax,%rax
    20b7:	74 6f                	je     2128 <read_line+0x82>
    20b9:	8b 35 3d 27 20 00    	mov    0x20273d(%rip),%esi        # 2047fc <num_input_strings>
    20bf:	48 63 c6             	movslq %esi,%rax
    20c2:	48 8d 14 80          	lea    (%rax,%rax,4),%rdx
    20c6:	48 c1 e2 04          	shl    $0x4,%rdx
    20ca:	48 8d 05 4f 27 20 00 	lea    0x20274f(%rip),%rax        # 204820 <input_strings>
    20d1:	48 01 c2             	add    %rax,%rdx
    20d4:	b8 00 00 00 00       	mov    $0x0,%eax
    20d9:	48 c7 c1 ff ff ff ff 	mov    $0xffffffffffffffff,%rcx
    20e0:	48 89 d7             	mov    %rdx,%rdi
    20e3:	f2 ae                	repnz scas %es:(%rdi),%al
    20e5:	48 f7 d1             	not    %rcx
    20e8:	48 83 e9 01          	sub    $0x1,%rcx
    20ec:	83 f9 4f             	cmp    $0x4f,%ecx
    20ef:	0f 84 a1 00 00 00    	je     2196 <read_line+0xf0>
    20f5:	83 e9 01             	sub    $0x1,%ecx
    20f8:	48 63 c9             	movslq %ecx,%rcx
    20fb:	48 63 c6             	movslq %esi,%rax
    20fe:	48 8d 04 80          	lea    (%rax,%rax,4),%rax
    2102:	48 c1 e0 04          	shl    $0x4,%rax
    2106:	48 89 c7             	mov    %rax,%rdi
    2109:	48 8d 05 10 27 20 00 	lea    0x202710(%rip),%rax        # 204820 <input_strings>
    2110:	48 01 f8             	add    %rdi,%rax
    2113:	c6 04 08 00          	movb   $0x0,(%rax,%rcx,1)
    2117:	83 c6 01             	add    $0x1,%esi
    211a:	89 35 dc 26 20 00    	mov    %esi,0x2026dc(%rip)        # 2047fc <num_input_strings>
    2120:	48 89 d0             	mov    %rdx,%rax
    2123:	48 83 c4 08          	add    $0x8,%rsp
    2127:	c3                   	retq   
    2128:	48 8b 05 c1 26 20 00 	mov    0x2026c1(%rip),%rax        # 2047f0 <stdin@@GLIBC_2.2.5>
    212f:	48 39 05 ca 26 20 00 	cmp    %rax,0x2026ca(%rip)        # 204800 <infile>
    2136:	74 43                	je     217b <read_line+0xd5>
    2138:	48 8d 3d e8 06 00 00 	lea    0x6e8(%rip),%rdi        # 2827 <array.3089+0x387>
    213f:	e8 dc ed ff ff       	callq  f20 <getenv@plt>
    2144:	48 85 c0             	test   %rax,%rax
    2147:	75 43                	jne    218c <read_line+0xe6>
    2149:	48 8b 05 a0 26 20 00 	mov    0x2026a0(%rip),%rax        # 2047f0 <stdin@@GLIBC_2.2.5>
    2150:	48 89 05 a9 26 20 00 	mov    %rax,0x2026a9(%rip)        # 204800 <infile>
    2157:	b8 00 00 00 00       	mov    $0x0,%eax
    215c:	e8 57 f8 ff ff       	callq  19b8 <skip>
    2161:	48 85 c0             	test   %rax,%rax
    2164:	0f 85 4f ff ff ff    	jne    20b9 <read_line+0x13>
    216a:	48 8d 3d 98 06 00 00 	lea    0x698(%rip),%rdi        # 2809 <array.3089+0x369>
    2171:	e8 da ed ff ff       	callq  f50 <puts@plt>
    2176:	e8 ae fe ff ff       	callq  2029 <explode_bomb>
    217b:	48 8d 3d 87 06 00 00 	lea    0x687(%rip),%rdi        # 2809 <array.3089+0x369>
    2182:	e8 c9 ed ff ff       	callq  f50 <puts@plt>
    2187:	e8 9d fe ff ff       	callq  2029 <explode_bomb>
    218c:	bf 00 00 00 00       	mov    $0x0,%edi
    2191:	e8 2a ef ff ff       	callq  10c0 <exit@plt>
    2196:	48 8d 3d 95 06 00 00 	lea    0x695(%rip),%rdi        # 2832 <array.3089+0x392>
    219d:	e8 ae ed ff ff       	callq  f50 <puts@plt>
    21a2:	e8 82 fe ff ff       	callq  2029 <explode_bomb>

00000000000021a7 <phase_defused>:
    21a7:	48 83 ec 68          	sub    $0x68,%rsp
    21ab:	bf 01 00 00 00       	mov    $0x1,%edi
    21b0:	e8 b1 f8 ff ff       	callq  1a66 <send_msg>
    21b5:	83 3d 40 26 20 00 06 	cmpl   $0x6,0x202640(%rip)        # 2047fc <num_input_strings>
    21bc:	74 05                	je     21c3 <phase_defused+0x1c>
    21be:	48 83 c4 68          	add    $0x68,%rsp
    21c2:	c3                   	retq   
    21c3:	48 8d 4c 24 10       	lea    0x10(%rsp),%rcx
    21c8:	48 8d 54 24 0c       	lea    0xc(%rsp),%rdx
    21cd:	48 8d 35 79 06 00 00 	lea    0x679(%rip),%rsi        # 284d <array.3089+0x3ad>
    21d4:	48 8d 3d 35 27 20 00 	lea    0x202735(%rip),%rdi        # 204910 <input_strings+0xf0>
    21db:	b8 00 00 00 00       	mov    $0x0,%eax
    21e0:	e8 7b ee ff ff       	callq  1060 <__isoc99_sscanf@plt>
    21e5:	83 f8 02             	cmp    $0x2,%eax
    21e8:	74 1a                	je     2204 <phase_defused+0x5d>
    21ea:	48 8d 3d af 03 00 00 	lea    0x3af(%rip),%rdi        # 25a0 <array.3089+0x100>
    21f1:	e8 5a ed ff ff       	callq  f50 <puts@plt>
    21f6:	48 8d 3d d3 03 00 00 	lea    0x3d3(%rip),%rdi        # 25d0 <array.3089+0x130>
    21fd:	e8 4e ed ff ff       	callq  f50 <puts@plt>
    2202:	eb ba                	jmp    21be <phase_defused+0x17>
    2204:	48 8d 7c 24 10       	lea    0x10(%rsp),%rdi
    2209:	48 8d 35 43 06 00 00 	lea    0x643(%rip),%rsi        # 2853 <array.3089+0x3b3>
    2210:	e8 04 f6 ff ff       	callq  1819 <strings_not_equal>
    2215:	85 c0                	test   %eax,%eax
    2217:	75 d1                	jne    21ea <phase_defused+0x43>
    2219:	48 8d 3d 20 03 00 00 	lea    0x320(%rip),%rdi        # 2540 <array.3089+0xa0>
    2220:	e8 2b ed ff ff       	callq  f50 <puts@plt>
    2225:	48 8d 3d 3c 03 00 00 	lea    0x33c(%rip),%rdi        # 2568 <array.3089+0xc8>
    222c:	e8 1f ed ff ff       	callq  f50 <puts@plt>
    2231:	b8 00 00 00 00       	mov    $0x0,%eax
    2236:	e8 f0 f4 ff ff       	callq  172b <secret_phase>
    223b:	eb ad                	jmp    21ea <phase_defused+0x43>
    223d:	0f 1f 00             	nopl   (%rax)

0000000000002240 <__libc_csu_init>:
    2240:	41 57                	push   %r15
    2242:	41 56                	push   %r14
    2244:	41 89 ff             	mov    %edi,%r15d
    2247:	41 55                	push   %r13
    2249:	41 54                	push   %r12
    224b:	4c 8d 25 86 1b 20 00 	lea    0x201b86(%rip),%r12        # 203dd8 <__frame_dummy_init_array_entry>
    2252:	55                   	push   %rbp
    2253:	48 8d 2d 86 1b 20 00 	lea    0x201b86(%rip),%rbp        # 203de0 <__init_array_end>
    225a:	53                   	push   %rbx
    225b:	49 89 f6             	mov    %rsi,%r14
    225e:	49 89 d5             	mov    %rdx,%r13
    2261:	4c 29 e5             	sub    %r12,%rbp
    2264:	48 83 ec 08          	sub    $0x8,%rsp
    2268:	48 c1 fd 03          	sar    $0x3,%rbp
    226c:	e8 87 ec ff ff       	callq  ef8 <_init>
    2271:	48 85 ed             	test   %rbp,%rbp
    2274:	74 20                	je     2296 <__libc_csu_init+0x56>
    2276:	31 db                	xor    %ebx,%ebx
    2278:	0f 1f 84 00 00 00 00 	nopl   0x0(%rax,%rax,1)
    227f:	00 
    2280:	4c 89 ea             	mov    %r13,%rdx
    2283:	4c 89 f6             	mov    %r14,%rsi
    2286:	44 89 ff             	mov    %r15d,%edi
    2289:	41 ff 14 dc          	callq  *(%r12,%rbx,8)
    228d:	48 83 c3 01          	add    $0x1,%rbx
    2291:	48 39 dd             	cmp    %rbx,%rbp
    2294:	75 ea                	jne    2280 <__libc_csu_init+0x40>
    2296:	48 83 c4 08          	add    $0x8,%rsp
    229a:	5b                   	pop    %rbx
    229b:	5d                   	pop    %rbp
    229c:	41 5c                	pop    %r12
    229e:	41 5d                	pop    %r13
    22a0:	41 5e                	pop    %r14
    22a2:	41 5f                	pop    %r15
    22a4:	c3                   	retq   
    22a5:	90                   	nop
    22a6:	66 2e 0f 1f 84 00 00 	nopw   %cs:0x0(%rax,%rax,1)
    22ad:	00 00 00 

00000000000022b0 <__libc_csu_fini>:
    22b0:	f3 c3                	repz retq 

Disassembly of section .fini:

00000000000022b4 <_fini>:
    22b4:	48 83 ec 08          	sub    $0x8,%rsp
    22b8:	48 83 c4 08          	add    $0x8,%rsp
    22bc:	c3                   	retq   
