
bomb:     file format elf64-x86-64


Disassembly of section .init:

0000000000400b30 <_init>:
  400b30:	48 83 ec 08          	sub    $0x8,%rsp
  400b34:	48 8b 05 bd 24 20 00 	mov    0x2024bd(%rip),%rax        # 602ff8 <__gmon_start__>
  400b3b:	48 85 c0             	test   %rax,%rax
  400b3e:	74 02                	je     400b42 <_init+0x12>
  400b40:	ff d0                	callq  *%rax
  400b42:	48 83 c4 08          	add    $0x8,%rsp
  400b46:	c3                   	retq   

Disassembly of section .plt:

0000000000400b50 <.plt>:
  400b50:	ff 35 b2 24 20 00    	pushq  0x2024b2(%rip)        # 603008 <_GLOBAL_OFFSET_TABLE_+0x8>
  400b56:	ff 25 b4 24 20 00    	jmpq   *0x2024b4(%rip)        # 603010 <_GLOBAL_OFFSET_TABLE_+0x10>
  400b5c:	0f 1f 40 00          	nopl   0x0(%rax)

0000000000400b60 <getenv@plt>:
  400b60:	ff 25 b2 24 20 00    	jmpq   *0x2024b2(%rip)        # 603018 <getenv@GLIBC_2.2.5>
  400b66:	68 00 00 00 00       	pushq  $0x0
  400b6b:	e9 e0 ff ff ff       	jmpq   400b50 <.plt>

0000000000400b70 <__errno_location@plt>:
  400b70:	ff 25 aa 24 20 00    	jmpq   *0x2024aa(%rip)        # 603020 <__errno_location@GLIBC_2.2.5>
  400b76:	68 01 00 00 00       	pushq  $0x1
  400b7b:	e9 d0 ff ff ff       	jmpq   400b50 <.plt>

0000000000400b80 <strcpy@plt>:
  400b80:	ff 25 a2 24 20 00    	jmpq   *0x2024a2(%rip)        # 603028 <strcpy@GLIBC_2.2.5>
  400b86:	68 02 00 00 00       	pushq  $0x2
  400b8b:	e9 c0 ff ff ff       	jmpq   400b50 <.plt>

0000000000400b90 <puts@plt>:
  400b90:	ff 25 9a 24 20 00    	jmpq   *0x20249a(%rip)        # 603030 <puts@GLIBC_2.2.5>
  400b96:	68 03 00 00 00       	pushq  $0x3
  400b9b:	e9 b0 ff ff ff       	jmpq   400b50 <.plt>

0000000000400ba0 <write@plt>:
  400ba0:	ff 25 92 24 20 00    	jmpq   *0x202492(%rip)        # 603038 <write@GLIBC_2.2.5>
  400ba6:	68 04 00 00 00       	pushq  $0x4
  400bab:	e9 a0 ff ff ff       	jmpq   400b50 <.plt>

0000000000400bb0 <fclose@plt>:
  400bb0:	ff 25 8a 24 20 00    	jmpq   *0x20248a(%rip)        # 603040 <fclose@GLIBC_2.2.5>
  400bb6:	68 05 00 00 00       	pushq  $0x5
  400bbb:	e9 90 ff ff ff       	jmpq   400b50 <.plt>

0000000000400bc0 <system@plt>:
  400bc0:	ff 25 82 24 20 00    	jmpq   *0x202482(%rip)        # 603048 <system@GLIBC_2.2.5>
  400bc6:	68 06 00 00 00       	pushq  $0x6
  400bcb:	e9 80 ff ff ff       	jmpq   400b50 <.plt>

0000000000400bd0 <printf@plt>:
  400bd0:	ff 25 7a 24 20 00    	jmpq   *0x20247a(%rip)        # 603050 <printf@GLIBC_2.2.5>
  400bd6:	68 07 00 00 00       	pushq  $0x7
  400bdb:	e9 70 ff ff ff       	jmpq   400b50 <.plt>

0000000000400be0 <rewind@plt>:
  400be0:	ff 25 72 24 20 00    	jmpq   *0x202472(%rip)        # 603058 <rewind@GLIBC_2.2.5>
  400be6:	68 08 00 00 00       	pushq  $0x8
  400beb:	e9 60 ff ff ff       	jmpq   400b50 <.plt>

0000000000400bf0 <dup@plt>:
  400bf0:	ff 25 6a 24 20 00    	jmpq   *0x20246a(%rip)        # 603060 <dup@GLIBC_2.2.5>
  400bf6:	68 09 00 00 00       	pushq  $0x9
  400bfb:	e9 50 ff ff ff       	jmpq   400b50 <.plt>

0000000000400c00 <close@plt>:
  400c00:	ff 25 62 24 20 00    	jmpq   *0x202462(%rip)        # 603068 <close@GLIBC_2.2.5>
  400c06:	68 0a 00 00 00       	pushq  $0xa
  400c0b:	e9 40 ff ff ff       	jmpq   400b50 <.plt>

0000000000400c10 <fputc@plt>:
  400c10:	ff 25 5a 24 20 00    	jmpq   *0x20245a(%rip)        # 603070 <fputc@GLIBC_2.2.5>
  400c16:	68 0b 00 00 00       	pushq  $0xb
  400c1b:	e9 30 ff ff ff       	jmpq   400b50 <.plt>

0000000000400c20 <fgets@plt>:
  400c20:	ff 25 52 24 20 00    	jmpq   *0x202452(%rip)        # 603078 <fgets@GLIBC_2.2.5>
  400c26:	68 0c 00 00 00       	pushq  $0xc
  400c2b:	e9 20 ff ff ff       	jmpq   400b50 <.plt>

0000000000400c30 <tmpfile@plt>:
  400c30:	ff 25 4a 24 20 00    	jmpq   *0x20244a(%rip)        # 603080 <tmpfile@GLIBC_2.2.5>
  400c36:	68 0d 00 00 00       	pushq  $0xd
  400c3b:	e9 10 ff ff ff       	jmpq   400b50 <.plt>

0000000000400c40 <signal@plt>:
  400c40:	ff 25 42 24 20 00    	jmpq   *0x202442(%rip)        # 603088 <signal@GLIBC_2.2.5>
  400c46:	68 0e 00 00 00       	pushq  $0xe
  400c4b:	e9 00 ff ff ff       	jmpq   400b50 <.plt>

0000000000400c50 <gethostbyname@plt>:
  400c50:	ff 25 3a 24 20 00    	jmpq   *0x20243a(%rip)        # 603090 <gethostbyname@GLIBC_2.2.5>
  400c56:	68 0f 00 00 00       	pushq  $0xf
  400c5b:	e9 f0 fe ff ff       	jmpq   400b50 <.plt>

0000000000400c60 <fprintf@plt>:
  400c60:	ff 25 32 24 20 00    	jmpq   *0x202432(%rip)        # 603098 <fprintf@GLIBC_2.2.5>
  400c66:	68 10 00 00 00       	pushq  $0x10
  400c6b:	e9 e0 fe ff ff       	jmpq   400b50 <.plt>

0000000000400c70 <inet_pton@plt>:
  400c70:	ff 25 2a 24 20 00    	jmpq   *0x20242a(%rip)        # 6030a0 <inet_pton@GLIBC_2.2.5>
  400c76:	68 11 00 00 00       	pushq  $0x11
  400c7b:	e9 d0 fe ff ff       	jmpq   400b50 <.plt>

0000000000400c80 <fflush@plt>:
  400c80:	ff 25 22 24 20 00    	jmpq   *0x202422(%rip)        # 6030a8 <fflush@GLIBC_2.2.5>
  400c86:	68 12 00 00 00       	pushq  $0x12
  400c8b:	e9 c0 fe ff ff       	jmpq   400b50 <.plt>

0000000000400c90 <__isoc99_sscanf@plt>:
  400c90:	ff 25 1a 24 20 00    	jmpq   *0x20241a(%rip)        # 6030b0 <__isoc99_sscanf@GLIBC_2.7>
  400c96:	68 13 00 00 00       	pushq  $0x13
  400c9b:	e9 b0 fe ff ff       	jmpq   400b50 <.plt>

0000000000400ca0 <bcopy@plt>:
  400ca0:	ff 25 12 24 20 00    	jmpq   *0x202412(%rip)        # 6030b8 <bcopy@GLIBC_2.2.5>
  400ca6:	68 14 00 00 00       	pushq  $0x14
  400cab:	e9 a0 fe ff ff       	jmpq   400b50 <.plt>

0000000000400cb0 <cuserid@plt>:
  400cb0:	ff 25 0a 24 20 00    	jmpq   *0x20240a(%rip)        # 6030c0 <cuserid@GLIBC_2.2.5>
  400cb6:	68 15 00 00 00       	pushq  $0x15
  400cbb:	e9 90 fe ff ff       	jmpq   400b50 <.plt>

0000000000400cc0 <fopen@plt>:
  400cc0:	ff 25 02 24 20 00    	jmpq   *0x202402(%rip)        # 6030c8 <fopen@GLIBC_2.2.5>
  400cc6:	68 16 00 00 00       	pushq  $0x16
  400ccb:	e9 80 fe ff ff       	jmpq   400b50 <.plt>

0000000000400cd0 <strcat@plt>:
  400cd0:	ff 25 fa 23 20 00    	jmpq   *0x2023fa(%rip)        # 6030d0 <strcat@GLIBC_2.2.5>
  400cd6:	68 17 00 00 00       	pushq  $0x17
  400cdb:	e9 70 fe ff ff       	jmpq   400b50 <.plt>

0000000000400ce0 <sprintf@plt>:
  400ce0:	ff 25 f2 23 20 00    	jmpq   *0x2023f2(%rip)        # 6030d8 <sprintf@GLIBC_2.2.5>
  400ce6:	68 18 00 00 00       	pushq  $0x18
  400ceb:	e9 60 fe ff ff       	jmpq   400b50 <.plt>

0000000000400cf0 <exit@plt>:
  400cf0:	ff 25 ea 23 20 00    	jmpq   *0x2023ea(%rip)        # 6030e0 <exit@GLIBC_2.2.5>
  400cf6:	68 19 00 00 00       	pushq  $0x19
  400cfb:	e9 50 fe ff ff       	jmpq   400b50 <.plt>

0000000000400d00 <connect@plt>:
  400d00:	ff 25 e2 23 20 00    	jmpq   *0x2023e2(%rip)        # 6030e8 <connect@GLIBC_2.2.5>
  400d06:	68 1a 00 00 00       	pushq  $0x1a
  400d0b:	e9 40 fe ff ff       	jmpq   400b50 <.plt>

0000000000400d10 <fwrite@plt>:
  400d10:	ff 25 da 23 20 00    	jmpq   *0x2023da(%rip)        # 6030f0 <fwrite@GLIBC_2.2.5>
  400d16:	68 1b 00 00 00       	pushq  $0x1b
  400d1b:	e9 30 fe ff ff       	jmpq   400b50 <.plt>

0000000000400d20 <sleep@plt>:
  400d20:	ff 25 d2 23 20 00    	jmpq   *0x2023d2(%rip)        # 6030f8 <sleep@GLIBC_2.2.5>
  400d26:	68 1c 00 00 00       	pushq  $0x1c
  400d2b:	e9 20 fe ff ff       	jmpq   400b50 <.plt>

0000000000400d30 <__ctype_b_loc@plt>:
  400d30:	ff 25 ca 23 20 00    	jmpq   *0x2023ca(%rip)        # 603100 <__ctype_b_loc@GLIBC_2.3>
  400d36:	68 1d 00 00 00       	pushq  $0x1d
  400d3b:	e9 10 fe ff ff       	jmpq   400b50 <.plt>

0000000000400d40 <socket@plt>:
  400d40:	ff 25 c2 23 20 00    	jmpq   *0x2023c2(%rip)        # 603108 <socket@GLIBC_2.2.5>
  400d46:	68 1e 00 00 00       	pushq  $0x1e
  400d4b:	e9 00 fe ff ff       	jmpq   400b50 <.plt>

Disassembly of section .text:

0000000000400d50 <_start>:
  400d50:	31 ed                	xor    %ebp,%ebp
  400d52:	49 89 d1             	mov    %rdx,%r9
  400d55:	5e                   	pop    %rsi
  400d56:	48 89 e2             	mov    %rsp,%rdx
  400d59:	48 83 e4 f0          	and    $0xfffffffffffffff0,%rsp
  400d5d:	50                   	push   %rax
  400d5e:	54                   	push   %rsp
  400d5f:	49 c7 c0 b0 1c 40 00 	mov    $0x401cb0,%r8
  400d66:	48 c7 c1 40 1c 40 00 	mov    $0x401c40,%rcx
  400d6d:	48 c7 c7 46 0e 40 00 	mov    $0x400e46,%rdi
  400d74:	ff 15 76 22 20 00    	callq  *0x202276(%rip)        # 602ff0 <__libc_start_main@GLIBC_2.2.5>
  400d7a:	f4                   	hlt    
  400d7b:	0f 1f 44 00 00       	nopl   0x0(%rax,%rax,1)

0000000000400d80 <deregister_tm_clones>:
  400d80:	b8 4f 35 60 00       	mov    $0x60354f,%eax
  400d85:	55                   	push   %rbp
  400d86:	48 2d 48 35 60 00    	sub    $0x603548,%rax
  400d8c:	48 83 f8 0e          	cmp    $0xe,%rax
  400d90:	48 89 e5             	mov    %rsp,%rbp
  400d93:	76 1b                	jbe    400db0 <deregister_tm_clones+0x30>
  400d95:	b8 00 00 00 00       	mov    $0x0,%eax
  400d9a:	48 85 c0             	test   %rax,%rax
  400d9d:	74 11                	je     400db0 <deregister_tm_clones+0x30>
  400d9f:	5d                   	pop    %rbp
  400da0:	bf 48 35 60 00       	mov    $0x603548,%edi
  400da5:	ff e0                	jmpq   *%rax
  400da7:	66 0f 1f 84 00 00 00 	nopw   0x0(%rax,%rax,1)
  400dae:	00 00 
  400db0:	5d                   	pop    %rbp
  400db1:	c3                   	retq   
  400db2:	0f 1f 40 00          	nopl   0x0(%rax)
  400db6:	66 2e 0f 1f 84 00 00 	nopw   %cs:0x0(%rax,%rax,1)
  400dbd:	00 00 00 

0000000000400dc0 <register_tm_clones>:
  400dc0:	be 48 35 60 00       	mov    $0x603548,%esi
  400dc5:	55                   	push   %rbp
  400dc6:	48 81 ee 48 35 60 00 	sub    $0x603548,%rsi
  400dcd:	48 c1 fe 03          	sar    $0x3,%rsi
  400dd1:	48 89 e5             	mov    %rsp,%rbp
  400dd4:	48 89 f0             	mov    %rsi,%rax
  400dd7:	48 c1 e8 3f          	shr    $0x3f,%rax
  400ddb:	48 01 c6             	add    %rax,%rsi
  400dde:	48 d1 fe             	sar    %rsi
  400de1:	74 15                	je     400df8 <register_tm_clones+0x38>
  400de3:	b8 00 00 00 00       	mov    $0x0,%eax
  400de8:	48 85 c0             	test   %rax,%rax
  400deb:	74 0b                	je     400df8 <register_tm_clones+0x38>
  400ded:	5d                   	pop    %rbp
  400dee:	bf 48 35 60 00       	mov    $0x603548,%edi
  400df3:	ff e0                	jmpq   *%rax
  400df5:	0f 1f 00             	nopl   (%rax)
  400df8:	5d                   	pop    %rbp
  400df9:	c3                   	retq   
  400dfa:	66 0f 1f 44 00 00    	nopw   0x0(%rax,%rax,1)

0000000000400e00 <__do_global_dtors_aux>:
  400e00:	80 3d 71 27 20 00 00 	cmpb   $0x0,0x202771(%rip)        # 603578 <completed.6972>
  400e07:	75 11                	jne    400e1a <__do_global_dtors_aux+0x1a>
  400e09:	55                   	push   %rbp
  400e0a:	48 89 e5             	mov    %rsp,%rbp
  400e0d:	e8 6e ff ff ff       	callq  400d80 <deregister_tm_clones>
  400e12:	5d                   	pop    %rbp
  400e13:	c6 05 5e 27 20 00 01 	movb   $0x1,0x20275e(%rip)        # 603578 <completed.6972>
  400e1a:	f3 c3                	repz retq 
  400e1c:	0f 1f 40 00          	nopl   0x0(%rax)

0000000000400e20 <frame_dummy>:
  400e20:	bf 18 2e 60 00       	mov    $0x602e18,%edi
  400e25:	48 83 3f 00          	cmpq   $0x0,(%rdi)
  400e29:	75 05                	jne    400e30 <frame_dummy+0x10>
  400e2b:	eb 93                	jmp    400dc0 <register_tm_clones>
  400e2d:	0f 1f 00             	nopl   (%rax)
  400e30:	b8 00 00 00 00       	mov    $0x0,%eax
  400e35:	48 85 c0             	test   %rax,%rax
  400e38:	74 f1                	je     400e2b <frame_dummy+0xb>
  400e3a:	55                   	push   %rbp
  400e3b:	48 89 e5             	mov    %rsp,%rbp
  400e3e:	ff d0                	callq  *%rax
  400e40:	5d                   	pop    %rbp
  400e41:	e9 7a ff ff ff       	jmpq   400dc0 <register_tm_clones>

0000000000400e46 <main>:
  400e46:	53                   	push   %rbx
  400e47:	83 ff 01             	cmp    $0x1,%edi
  400e4a:	0f 84 9e 00 00 00    	je     400eee <main+0xa8>
  400e50:	48 89 f3             	mov    %rsi,%rbx
  400e53:	83 ff 02             	cmp    $0x2,%edi
  400e56:	0f 85 c2 00 00 00    	jne    400f1e <main+0xd8>
  400e5c:	48 8b 7e 08          	mov    0x8(%rsi),%rdi
  400e60:	48 8d 35 f3 11 00 00 	lea    0x11f3(%rip),%rsi        # 40205a <array.3074+0x22a>
  400e67:	e8 54 fe ff ff       	callq  400cc0 <fopen@plt>
  400e6c:	48 89 05 0d 27 20 00 	mov    %rax,0x20270d(%rip)        # 603580 <infile>
  400e73:	48 85 c0             	test   %rax,%rax
  400e76:	0f 84 85 00 00 00    	je     400f01 <main+0xbb>
  400e7c:	e8 a9 04 00 00       	callq  40132a <initialize_bomb>
  400e81:	48 8d 3d 98 0e 00 00 	lea    0xe98(%rip),%rdi        # 401d20 <_IO_stdin_used+0x60>
  400e88:	e8 03 fd ff ff       	callq  400b90 <puts@plt>
  400e8d:	48 8d 3d cc 0e 00 00 	lea    0xecc(%rip),%rdi        # 401d60 <_IO_stdin_used+0xa0>
  400e94:	e8 f7 fc ff ff       	callq  400b90 <puts@plt>
  400e99:	e8 e7 0b 00 00       	callq  401a85 <read_line>
  400e9e:	48 89 c7             	mov    %rax,%rdi
  400ea1:	e8 96 00 00 00       	callq  400f3c <phase_1>
  400ea6:	e8 db 0c 00 00       	callq  401b86 <phase_defused>
  400eab:	48 8d 3d de 0e 00 00 	lea    0xede(%rip),%rdi        # 401d90 <_IO_stdin_used+0xd0>
  400eb2:	e8 d9 fc ff ff       	callq  400b90 <puts@plt>
  400eb7:	e8 c9 0b 00 00       	callq  401a85 <read_line>
  400ebc:	48 89 c7             	mov    %rax,%rdi
  400ebf:	e8 98 00 00 00       	callq  400f5c <phase_2>
  400ec4:	e8 bd 0c 00 00       	callq  401b86 <phase_defused>
  400ec9:	48 8d 3d 2b 0e 00 00 	lea    0xe2b(%rip),%rdi        # 401cfb <_IO_stdin_used+0x3b>
  400ed0:	e8 bb fc ff ff       	callq  400b90 <puts@plt>
  400ed5:	e8 ab 0b 00 00       	callq  401a85 <read_line>
  400eda:	48 89 c7             	mov    %rax,%rdi
  400edd:	e8 b8 00 00 00       	callq  400f9a <phase_3>
  400ee2:	e8 9f 0c 00 00       	callq  401b86 <phase_defused>
  400ee7:	b8 00 00 00 00       	mov    $0x0,%eax
  400eec:	5b                   	pop    %rbx
  400eed:	c3                   	retq   
  400eee:	48 8b 05 7b 26 20 00 	mov    0x20267b(%rip),%rax        # 603570 <stdin@@GLIBC_2.2.5>
  400ef5:	48 89 05 84 26 20 00 	mov    %rax,0x202684(%rip)        # 603580 <infile>
  400efc:	e9 7b ff ff ff       	jmpq   400e7c <main+0x36>
  400f01:	48 8b 53 08          	mov    0x8(%rbx),%rdx
  400f05:	48 8b 33             	mov    (%rbx),%rsi
  400f08:	48 8d 3d b5 0d 00 00 	lea    0xdb5(%rip),%rdi        # 401cc4 <_IO_stdin_used+0x4>
  400f0f:	e8 bc fc ff ff       	callq  400bd0 <printf@plt>
  400f14:	bf 08 00 00 00       	mov    $0x8,%edi
  400f19:	e8 d2 fd ff ff       	callq  400cf0 <exit@plt>
  400f1e:	48 8b 36             	mov    (%rsi),%rsi
  400f21:	48 8d 3d b9 0d 00 00 	lea    0xdb9(%rip),%rdi        # 401ce1 <_IO_stdin_used+0x21>
  400f28:	b8 00 00 00 00       	mov    $0x0,%eax
  400f2d:	e8 9e fc ff ff       	callq  400bd0 <printf@plt>
  400f32:	bf 08 00 00 00       	mov    $0x8,%edi
  400f37:	e8 b4 fd ff ff       	callq  400cf0 <exit@plt>

0000000000400f3c <phase_1>:
  400f3c:	48 83 ec 08          	sub    $0x8,%rsp
  400f40:	48 8d 35 79 0e 00 00 	lea    0xe79(%rip),%rsi        # 401dc0 <_IO_stdin_used+0x100>
  400f47:	e8 ac 02 00 00       	callq  4011f8 <strings_not_equal>
  400f4c:	85 c0                	test   %eax,%eax
  400f4e:	75 05                	jne    400f55 <phase_1+0x19>
  400f50:	48 83 c4 08          	add    $0x8,%rsp
  400f54:	c3                   	retq   
  400f55:	e8 ae 0a 00 00       	callq  401a08 <explode_bomb>
  400f5a:	eb f4                	jmp    400f50 <phase_1+0x14>

0000000000400f5c <phase_2>:
  400f5c:	55                   	push   %rbp
  400f5d:	53                   	push   %rbx
  400f5e:	48 83 ec 28          	sub    $0x28,%rsp
  400f62:	48 89 e3             	mov    %rsp,%rbx
  400f65:	48 89 e6             	mov    %rsp,%rsi
  400f68:	e8 d7 0a 00 00       	callq  401a44 <read_six_numbers>
  400f6d:	bd 01 00 00 00       	mov    $0x1,%ebp
  400f72:	eb 0c                	jmp    400f80 <phase_2+0x24>
  400f74:	83 c5 01             	add    $0x1,%ebp
  400f77:	48 83 c3 04          	add    $0x4,%rbx
  400f7b:	83 fd 06             	cmp    $0x6,%ebp
  400f7e:	74 13                	je     400f93 <phase_2+0x37>
  400f80:	8b 03                	mov    (%rbx),%eax
  400f82:	83 c0 04             	add    $0x4,%eax
  400f85:	29 e8                	sub    %ebp,%eax
  400f87:	39 43 04             	cmp    %eax,0x4(%rbx)
  400f8a:	74 e8                	je     400f74 <phase_2+0x18>
  400f8c:	e8 77 0a 00 00       	callq  401a08 <explode_bomb>
  400f91:	eb e1                	jmp    400f74 <phase_2+0x18>
  400f93:	48 83 c4 28          	add    $0x28,%rsp
  400f97:	5b                   	pop    %rbx
  400f98:	5d                   	pop    %rbp
  400f99:	c3                   	retq   

0000000000400f9a <phase_3>:
  400f9a:	48 83 ec 18          	sub    $0x18,%rsp
  400f9e:	48 8d 4c 24 07       	lea    0x7(%rsp),%rcx
  400fa3:	48 8d 54 24 0c       	lea    0xc(%rsp),%rdx
  400fa8:	4c 8d 44 24 08       	lea    0x8(%rsp),%r8
  400fad:	48 8d 35 4a 0e 00 00 	lea    0xe4a(%rip),%rsi        # 401dfe <_IO_stdin_used+0x13e>
  400fb4:	b8 00 00 00 00       	mov    $0x0,%eax
  400fb9:	e8 d2 fc ff ff       	callq  400c90 <__isoc99_sscanf@plt>
  400fbe:	83 f8 02             	cmp    $0x2,%eax
  400fc1:	7e 1f                	jle    400fe2 <phase_3+0x48>
  400fc3:	83 7c 24 0c 07       	cmpl   $0x7,0xc(%rsp)
  400fc8:	0f 87 09 01 00 00    	ja     4010d7 <phase_3+0x13d>
  400fce:	8b 44 24 0c          	mov    0xc(%rsp),%eax
  400fd2:	48 8d 15 37 0e 00 00 	lea    0xe37(%rip),%rdx        # 401e10 <_IO_stdin_used+0x150>
  400fd9:	48 63 04 82          	movslq (%rdx,%rax,4),%rax
  400fdd:	48 01 d0             	add    %rdx,%rax
  400fe0:	ff e0                	jmpq   *%rax
  400fe2:	e8 21 0a 00 00       	callq  401a08 <explode_bomb>
  400fe7:	eb da                	jmp    400fc3 <phase_3+0x29>
  400fe9:	b8 64 00 00 00       	mov    $0x64,%eax
  400fee:	81 7c 24 08 c5 00 00 	cmpl   $0xc5,0x8(%rsp)
  400ff5:	00 
  400ff6:	0f 84 e5 00 00 00    	je     4010e1 <phase_3+0x147>
  400ffc:	e8 07 0a 00 00       	callq  401a08 <explode_bomb>
  401001:	b8 64 00 00 00       	mov    $0x64,%eax
  401006:	e9 d6 00 00 00       	jmpq   4010e1 <phase_3+0x147>
  40100b:	b8 6d 00 00 00       	mov    $0x6d,%eax
  401010:	81 7c 24 08 cc 02 00 	cmpl   $0x2cc,0x8(%rsp)
  401017:	00 
  401018:	0f 84 c3 00 00 00    	je     4010e1 <phase_3+0x147>
  40101e:	e8 e5 09 00 00       	callq  401a08 <explode_bomb>
  401023:	b8 6d 00 00 00       	mov    $0x6d,%eax
  401028:	e9 b4 00 00 00       	jmpq   4010e1 <phase_3+0x147>
  40102d:	b8 67 00 00 00       	mov    $0x67,%eax
  401032:	83 7c 24 08 4d       	cmpl   $0x4d,0x8(%rsp)
  401037:	0f 84 a4 00 00 00    	je     4010e1 <phase_3+0x147>
  40103d:	e8 c6 09 00 00       	callq  401a08 <explode_bomb>
  401042:	b8 67 00 00 00       	mov    $0x67,%eax
  401047:	e9 95 00 00 00       	jmpq   4010e1 <phase_3+0x147>
  40104c:	b8 79 00 00 00       	mov    $0x79,%eax
  401051:	81 7c 24 08 e0 00 00 	cmpl   $0xe0,0x8(%rsp)
  401058:	00 
  401059:	0f 84 82 00 00 00    	je     4010e1 <phase_3+0x147>
  40105f:	e8 a4 09 00 00       	callq  401a08 <explode_bomb>
  401064:	b8 79 00 00 00       	mov    $0x79,%eax
  401069:	eb 76                	jmp    4010e1 <phase_3+0x147>
  40106b:	b8 66 00 00 00       	mov    $0x66,%eax
  401070:	81 7c 24 08 13 03 00 	cmpl   $0x313,0x8(%rsp)
  401077:	00 
  401078:	74 67                	je     4010e1 <phase_3+0x147>
  40107a:	e8 89 09 00 00       	callq  401a08 <explode_bomb>
  40107f:	b8 66 00 00 00       	mov    $0x66,%eax
  401084:	eb 5b                	jmp    4010e1 <phase_3+0x147>
  401086:	b8 61 00 00 00       	mov    $0x61,%eax
  40108b:	81 7c 24 08 b6 01 00 	cmpl   $0x1b6,0x8(%rsp)
  401092:	00 
  401093:	74 4c                	je     4010e1 <phase_3+0x147>
  401095:	e8 6e 09 00 00       	callq  401a08 <explode_bomb>
  40109a:	b8 61 00 00 00       	mov    $0x61,%eax
  40109f:	eb 40                	jmp    4010e1 <phase_3+0x147>
  4010a1:	b8 61 00 00 00       	mov    $0x61,%eax
  4010a6:	81 7c 24 08 76 01 00 	cmpl   $0x176,0x8(%rsp)
  4010ad:	00 
  4010ae:	74 31                	je     4010e1 <phase_3+0x147>
  4010b0:	e8 53 09 00 00       	callq  401a08 <explode_bomb>
  4010b5:	b8 61 00 00 00       	mov    $0x61,%eax
  4010ba:	eb 25                	jmp    4010e1 <phase_3+0x147>
  4010bc:	b8 65 00 00 00       	mov    $0x65,%eax
  4010c1:	81 7c 24 08 80 02 00 	cmpl   $0x280,0x8(%rsp)
  4010c8:	00 
  4010c9:	74 16                	je     4010e1 <phase_3+0x147>
  4010cb:	e8 38 09 00 00       	callq  401a08 <explode_bomb>
  4010d0:	b8 65 00 00 00       	mov    $0x65,%eax
  4010d5:	eb 0a                	jmp    4010e1 <phase_3+0x147>
  4010d7:	e8 2c 09 00 00       	callq  401a08 <explode_bomb>
  4010dc:	b8 6a 00 00 00       	mov    $0x6a,%eax
  4010e1:	3a 44 24 07          	cmp    0x7(%rsp),%al
  4010e5:	74 05                	je     4010ec <phase_3+0x152>
  4010e7:	e8 1c 09 00 00       	callq  401a08 <explode_bomb>
  4010ec:	48 83 c4 18          	add    $0x18,%rsp
  4010f0:	c3                   	retq   

00000000004010f1 <secret_phase>:
  4010f1:	53                   	push   %rbx
  4010f2:	48 83 ec 10          	sub    $0x10,%rsp
  4010f6:	e8 8a 09 00 00       	callq  401a85 <read_line>
  4010fb:	48 89 c3             	mov    %rax,%rbx
  4010fe:	48 89 c7             	mov    %rax,%rdi
  401101:	e8 d4 00 00 00       	callq  4011da <string_length>
  401106:	83 f8 06             	cmp    $0x6,%eax
  401109:	74 05                	je     401110 <secret_phase+0x1f>
  40110b:	e8 f8 08 00 00       	callq  401a08 <explode_bomb>
  401110:	b8 00 00 00 00       	mov    $0x0,%eax
  401115:	48 8d 0d 14 0d 00 00 	lea    0xd14(%rip),%rcx        # 401e30 <array.3074>
  40111c:	0f b6 14 03          	movzbl (%rbx,%rax,1),%edx
  401120:	83 e2 0f             	and    $0xf,%edx
  401123:	0f b6 14 11          	movzbl (%rcx,%rdx,1),%edx
  401127:	88 54 04 09          	mov    %dl,0x9(%rsp,%rax,1)
  40112b:	48 83 c0 01          	add    $0x1,%rax
  40112f:	48 83 f8 06          	cmp    $0x6,%rax
  401133:	75 e7                	jne    40111c <secret_phase+0x2b>
  401135:	c6 44 24 0f 00       	movb   $0x0,0xf(%rsp)
  40113a:	48 8d 7c 24 09       	lea    0x9(%rsp),%rdi
  40113f:	48 8d 35 c1 0c 00 00 	lea    0xcc1(%rip),%rsi        # 401e07 <_IO_stdin_used+0x147>
  401146:	e8 ad 00 00 00       	callq  4011f8 <strings_not_equal>
  40114b:	85 c0                	test   %eax,%eax
  40114d:	75 0b                	jne    40115a <secret_phase+0x69>
  40114f:	e8 32 0a 00 00       	callq  401b86 <phase_defused>
  401154:	48 83 c4 10          	add    $0x10,%rsp
  401158:	5b                   	pop    %rbx
  401159:	c3                   	retq   
  40115a:	e8 a9 08 00 00       	callq  401a08 <explode_bomb>
  40115f:	eb ee                	jmp    40114f <secret_phase+0x5e>

0000000000401161 <sig_handler>:
  401161:	48 83 ec 08          	sub    $0x8,%rsp
  401165:	48 8d 3d d4 0c 00 00 	lea    0xcd4(%rip),%rdi        # 401e40 <array.3074+0x10>
  40116c:	e8 1f fa ff ff       	callq  400b90 <puts@plt>
  401171:	bf 03 00 00 00       	mov    $0x3,%edi
  401176:	e8 a5 fb ff ff       	callq  400d20 <sleep@plt>
  40117b:	48 8d 3d f6 0d 00 00 	lea    0xdf6(%rip),%rdi        # 401f78 <array.3074+0x148>
  401182:	b8 00 00 00 00       	mov    $0x0,%eax
  401187:	e8 44 fa ff ff       	callq  400bd0 <printf@plt>
  40118c:	48 8b 3d cd 23 20 00 	mov    0x2023cd(%rip),%rdi        # 603560 <stdout@@GLIBC_2.2.5>
  401193:	e8 e8 fa ff ff       	callq  400c80 <fflush@plt>
  401198:	bf 01 00 00 00       	mov    $0x1,%edi
  40119d:	e8 7e fb ff ff       	callq  400d20 <sleep@plt>
  4011a2:	48 8d 3d d7 0d 00 00 	lea    0xdd7(%rip),%rdi        # 401f80 <array.3074+0x150>
  4011a9:	e8 e2 f9 ff ff       	callq  400b90 <puts@plt>
  4011ae:	bf 10 00 00 00       	mov    $0x10,%edi
  4011b3:	e8 38 fb ff ff       	callq  400cf0 <exit@plt>

00000000004011b8 <invalid_phase>:
  4011b8:	48 83 ec 08          	sub    $0x8,%rsp
  4011bc:	48 89 fe             	mov    %rdi,%rsi
  4011bf:	48 8d 3d c2 0d 00 00 	lea    0xdc2(%rip),%rdi        # 401f88 <array.3074+0x158>
  4011c6:	b8 00 00 00 00       	mov    $0x0,%eax
  4011cb:	e8 00 fa ff ff       	callq  400bd0 <printf@plt>
  4011d0:	bf 08 00 00 00       	mov    $0x8,%edi
  4011d5:	e8 16 fb ff ff       	callq  400cf0 <exit@plt>

00000000004011da <string_length>:
  4011da:	80 3f 00             	cmpb   $0x0,(%rdi)
  4011dd:	74 13                	je     4011f2 <string_length+0x18>
  4011df:	b8 00 00 00 00       	mov    $0x0,%eax
  4011e4:	48 83 c7 01          	add    $0x1,%rdi
  4011e8:	83 c0 01             	add    $0x1,%eax
  4011eb:	80 3f 00             	cmpb   $0x0,(%rdi)
  4011ee:	75 f4                	jne    4011e4 <string_length+0xa>
  4011f0:	f3 c3                	repz retq 
  4011f2:	b8 00 00 00 00       	mov    $0x0,%eax
  4011f7:	c3                   	retq   

00000000004011f8 <strings_not_equal>:
  4011f8:	41 54                	push   %r12
  4011fa:	55                   	push   %rbp
  4011fb:	53                   	push   %rbx
  4011fc:	48 89 fb             	mov    %rdi,%rbx
  4011ff:	48 89 f5             	mov    %rsi,%rbp
  401202:	e8 d3 ff ff ff       	callq  4011da <string_length>
  401207:	41 89 c4             	mov    %eax,%r12d
  40120a:	48 89 ef             	mov    %rbp,%rdi
  40120d:	e8 c8 ff ff ff       	callq  4011da <string_length>
  401212:	ba 01 00 00 00       	mov    $0x1,%edx
  401217:	41 39 c4             	cmp    %eax,%r12d
  40121a:	74 07                	je     401223 <strings_not_equal+0x2b>
  40121c:	89 d0                	mov    %edx,%eax
  40121e:	5b                   	pop    %rbx
  40121f:	5d                   	pop    %rbp
  401220:	41 5c                	pop    %r12
  401222:	c3                   	retq   
  401223:	0f b6 03             	movzbl (%rbx),%eax
  401226:	84 c0                	test   %al,%al
  401228:	74 27                	je     401251 <strings_not_equal+0x59>
  40122a:	3a 45 00             	cmp    0x0(%rbp),%al
  40122d:	75 29                	jne    401258 <strings_not_equal+0x60>
  40122f:	48 83 c3 01          	add    $0x1,%rbx
  401233:	48 83 c5 01          	add    $0x1,%rbp
  401237:	0f b6 03             	movzbl (%rbx),%eax
  40123a:	84 c0                	test   %al,%al
  40123c:	74 0c                	je     40124a <strings_not_equal+0x52>
  40123e:	3a 45 00             	cmp    0x0(%rbp),%al
  401241:	74 ec                	je     40122f <strings_not_equal+0x37>
  401243:	ba 01 00 00 00       	mov    $0x1,%edx
  401248:	eb d2                	jmp    40121c <strings_not_equal+0x24>
  40124a:	ba 00 00 00 00       	mov    $0x0,%edx
  40124f:	eb cb                	jmp    40121c <strings_not_equal+0x24>
  401251:	ba 00 00 00 00       	mov    $0x0,%edx
  401256:	eb c4                	jmp    40121c <strings_not_equal+0x24>
  401258:	ba 01 00 00 00       	mov    $0x1,%edx
  40125d:	eb bd                	jmp    40121c <strings_not_equal+0x24>

000000000040125f <open_clientfd>:
  40125f:	41 54                	push   %r12
  401261:	55                   	push   %rbp
  401262:	53                   	push   %rbx
  401263:	48 83 ec 10          	sub    $0x10,%rsp
  401267:	49 89 fc             	mov    %rdi,%r12
  40126a:	89 f3                	mov    %esi,%ebx
  40126c:	ba 00 00 00 00       	mov    $0x0,%edx
  401271:	be 01 00 00 00       	mov    $0x1,%esi
  401276:	bf 02 00 00 00       	mov    $0x2,%edi
  40127b:	e8 c0 fa ff ff       	callq  400d40 <socket@plt>
  401280:	85 c0                	test   %eax,%eax
  401282:	78 64                	js     4012e8 <open_clientfd+0x89>
  401284:	89 c5                	mov    %eax,%ebp
  401286:	4c 89 e7             	mov    %r12,%rdi
  401289:	e8 c2 f9 ff ff       	callq  400c50 <gethostbyname@plt>
  40128e:	48 85 c0             	test   %rax,%rax
  401291:	74 6b                	je     4012fe <open_clientfd+0x9f>
  401293:	48 c7 04 24 00 00 00 	movq   $0x0,(%rsp)
  40129a:	00 
  40129b:	48 c7 44 24 08 00 00 	movq   $0x0,0x8(%rsp)
  4012a2:	00 00 
  4012a4:	66 c7 04 24 02 00    	movw   $0x2,(%rsp)
  4012aa:	48 63 50 14          	movslq 0x14(%rax),%rdx
  4012ae:	48 8d 74 24 04       	lea    0x4(%rsp),%rsi
  4012b3:	48 8b 40 18          	mov    0x18(%rax),%rax
  4012b7:	48 8b 38             	mov    (%rax),%rdi
  4012ba:	e8 e1 f9 ff ff       	callq  400ca0 <bcopy@plt>
  4012bf:	89 de                	mov    %ebx,%esi
  4012c1:	66 c1 ce 08          	ror    $0x8,%si
  4012c5:	66 89 74 24 02       	mov    %si,0x2(%rsp)
  4012ca:	ba 10 00 00 00       	mov    $0x10,%edx
  4012cf:	48 89 e6             	mov    %rsp,%rsi
  4012d2:	89 ef                	mov    %ebp,%edi
  4012d4:	e8 27 fa ff ff       	callq  400d00 <connect@plt>
  4012d9:	85 c0                	test   %eax,%eax
  4012db:	78 37                	js     401314 <open_clientfd+0xb5>
  4012dd:	89 e8                	mov    %ebp,%eax
  4012df:	48 83 c4 10          	add    $0x10,%rsp
  4012e3:	5b                   	pop    %rbx
  4012e4:	5d                   	pop    %rbp
  4012e5:	41 5c                	pop    %r12
  4012e7:	c3                   	retq   
  4012e8:	48 8d 3d aa 0c 00 00 	lea    0xcaa(%rip),%rdi        # 401f99 <array.3074+0x169>
  4012ef:	e8 9c f8 ff ff       	callq  400b90 <puts@plt>
  4012f4:	bf 08 00 00 00       	mov    $0x8,%edi
  4012f9:	e8 f2 f9 ff ff       	callq  400cf0 <exit@plt>
  4012fe:	48 8d 3d a2 0c 00 00 	lea    0xca2(%rip),%rdi        # 401fa7 <array.3074+0x177>
  401305:	e8 86 f8 ff ff       	callq  400b90 <puts@plt>
  40130a:	bf 08 00 00 00       	mov    $0x8,%edi
  40130f:	e8 dc f9 ff ff       	callq  400cf0 <exit@plt>
  401314:	48 8d 3d 9a 0c 00 00 	lea    0xc9a(%rip),%rdi        # 401fb5 <array.3074+0x185>
  40131b:	e8 70 f8 ff ff       	callq  400b90 <puts@plt>
  401320:	bf 08 00 00 00       	mov    $0x8,%edi
  401325:	e8 c6 f9 ff ff       	callq  400cf0 <exit@plt>

000000000040132a <initialize_bomb>:
  40132a:	48 83 ec 08          	sub    $0x8,%rsp
  40132e:	48 8d 35 2c fe ff ff 	lea    -0x1d4(%rip),%rsi        # 401161 <sig_handler>
  401335:	bf 02 00 00 00       	mov    $0x2,%edi
  40133a:	e8 01 f9 ff ff       	callq  400c40 <signal@plt>
  40133f:	be 50 00 00 00       	mov    $0x50,%esi
  401344:	48 8d 3d 78 0c 00 00 	lea    0xc78(%rip),%rdi        # 401fc3 <array.3074+0x193>
  40134b:	e8 0f ff ff ff       	callq  40125f <open_clientfd>
  401350:	89 c7                	mov    %eax,%edi
  401352:	e8 a9 f8 ff ff       	callq  400c00 <close@plt>
  401357:	48 83 c4 08          	add    $0x8,%rsp
  40135b:	c3                   	retq   

000000000040135c <blank_line>:
  40135c:	55                   	push   %rbp
  40135d:	53                   	push   %rbx
  40135e:	48 83 ec 08          	sub    $0x8,%rsp
  401362:	48 89 fd             	mov    %rdi,%rbp
  401365:	0f b6 5d 00          	movzbl 0x0(%rbp),%ebx
  401369:	84 db                	test   %bl,%bl
  40136b:	74 1e                	je     40138b <blank_line+0x2f>
  40136d:	e8 be f9 ff ff       	callq  400d30 <__ctype_b_loc@plt>
  401372:	48 83 c5 01          	add    $0x1,%rbp
  401376:	48 0f be db          	movsbq %bl,%rbx
  40137a:	48 8b 00             	mov    (%rax),%rax
  40137d:	f6 44 58 01 20       	testb  $0x20,0x1(%rax,%rbx,2)
  401382:	75 e1                	jne    401365 <blank_line+0x9>
  401384:	b8 00 00 00 00       	mov    $0x0,%eax
  401389:	eb 05                	jmp    401390 <blank_line+0x34>
  40138b:	b8 01 00 00 00       	mov    $0x1,%eax
  401390:	48 83 c4 08          	add    $0x8,%rsp
  401394:	5b                   	pop    %rbx
  401395:	5d                   	pop    %rbp
  401396:	c3                   	retq   

0000000000401397 <skip>:
  401397:	55                   	push   %rbp
  401398:	53                   	push   %rbx
  401399:	48 83 ec 08          	sub    $0x8,%rsp
  40139d:	48 8d 2d fc 21 20 00 	lea    0x2021fc(%rip),%rbp        # 6035a0 <input_strings>
  4013a4:	48 63 05 d1 21 20 00 	movslq 0x2021d1(%rip),%rax        # 60357c <num_input_strings>
  4013ab:	48 8d 3c 80          	lea    (%rax,%rax,4),%rdi
  4013af:	48 c1 e7 04          	shl    $0x4,%rdi
  4013b3:	48 01 ef             	add    %rbp,%rdi
  4013b6:	48 8b 15 c3 21 20 00 	mov    0x2021c3(%rip),%rdx        # 603580 <infile>
  4013bd:	be 50 00 00 00       	mov    $0x50,%esi
  4013c2:	e8 59 f8 ff ff       	callq  400c20 <fgets@plt>
  4013c7:	48 89 c3             	mov    %rax,%rbx
  4013ca:	48 85 c0             	test   %rax,%rax
  4013cd:	74 0c                	je     4013db <skip+0x44>
  4013cf:	48 89 c7             	mov    %rax,%rdi
  4013d2:	e8 85 ff ff ff       	callq  40135c <blank_line>
  4013d7:	85 c0                	test   %eax,%eax
  4013d9:	75 c9                	jne    4013a4 <skip+0xd>
  4013db:	48 89 d8             	mov    %rbx,%rax
  4013de:	48 83 c4 08          	add    $0x8,%rsp
  4013e2:	5b                   	pop    %rbx
  4013e3:	5d                   	pop    %rbp
  4013e4:	c3                   	retq   

00000000004013e5 <writen>:
  4013e5:	41 56                	push   %r14
  4013e7:	41 55                	push   %r13
  4013e9:	41 54                	push   %r12
  4013eb:	55                   	push   %rbp
  4013ec:	53                   	push   %rbx
  4013ed:	49 89 d5             	mov    %rdx,%r13
  4013f0:	48 85 d2             	test   %rdx,%rdx
  4013f3:	74 3b                	je     401430 <writen+0x4b>
  4013f5:	41 89 fc             	mov    %edi,%r12d
  4013f8:	48 89 f5             	mov    %rsi,%rbp
  4013fb:	48 89 d3             	mov    %rdx,%rbx
  4013fe:	41 be 00 00 00 00    	mov    $0x0,%r14d
  401404:	eb 08                	jmp    40140e <writen+0x29>
  401406:	48 01 c5             	add    %rax,%rbp
  401409:	48 29 c3             	sub    %rax,%rbx
  40140c:	74 22                	je     401430 <writen+0x4b>
  40140e:	48 89 da             	mov    %rbx,%rdx
  401411:	48 89 ee             	mov    %rbp,%rsi
  401414:	44 89 e7             	mov    %r12d,%edi
  401417:	e8 84 f7 ff ff       	callq  400ba0 <write@plt>
  40141c:	48 85 c0             	test   %rax,%rax
  40141f:	7f e5                	jg     401406 <writen+0x21>
  401421:	e8 4a f7 ff ff       	callq  400b70 <__errno_location@plt>
  401426:	83 38 04             	cmpl   $0x4,(%rax)
  401429:	75 11                	jne    40143c <writen+0x57>
  40142b:	4c 89 f0             	mov    %r14,%rax
  40142e:	eb d6                	jmp    401406 <writen+0x21>
  401430:	4c 89 e8             	mov    %r13,%rax
  401433:	5b                   	pop    %rbx
  401434:	5d                   	pop    %rbp
  401435:	41 5c                	pop    %r12
  401437:	41 5d                	pop    %r13
  401439:	41 5e                	pop    %r14
  40143b:	c3                   	retq   
  40143c:	48 c7 c0 ff ff ff ff 	mov    $0xffffffffffffffff,%rax
  401443:	eb ee                	jmp    401433 <writen+0x4e>

0000000000401445 <send_msg>:
  401445:	41 57                	push   %r15
  401447:	41 56                	push   %r14
  401449:	41 55                	push   %r13
  40144b:	41 54                	push   %r12
  40144d:	55                   	push   %rbp
  40144e:	53                   	push   %rbx
  40144f:	48 81 ec 68 24 00 00 	sub    $0x2468,%rsp
  401456:	41 89 fc             	mov    %edi,%r12d
  401459:	ba 00 00 00 00       	mov    $0x0,%edx
  40145e:	be 01 00 00 00       	mov    $0x1,%esi
  401463:	bf 02 00 00 00       	mov    $0x2,%edi
  401468:	e8 d3 f8 ff ff       	callq  400d40 <socket@plt>
  40146d:	41 89 c7             	mov    %eax,%r15d
  401470:	85 c0                	test   %eax,%eax
  401472:	0f 88 2a 02 00 00    	js     4016a2 <send_msg+0x25d>
  401478:	48 c7 84 24 50 24 00 	movq   $0x0,0x2450(%rsp)
  40147f:	00 00 00 00 00 
  401484:	48 c7 84 24 58 24 00 	movq   $0x0,0x2458(%rsp)
  40148b:	00 00 00 00 00 
  401490:	66 c7 84 24 50 24 00 	movw   $0x2,0x2450(%rsp)
  401497:	00 02 00 
  40149a:	66 c7 84 24 52 24 00 	movw   $0x62cc,0x2452(%rsp)
  4014a1:	00 cc 62 
  4014a4:	48 8d 94 24 54 24 00 	lea    0x2454(%rsp),%rdx
  4014ab:	00 
  4014ac:	48 8d 35 10 0b 00 00 	lea    0xb10(%rip),%rsi        # 401fc3 <array.3074+0x193>
  4014b3:	bf 02 00 00 00       	mov    $0x2,%edi
  4014b8:	b8 00 00 00 00       	mov    $0x0,%eax
  4014bd:	e8 ae f7 ff ff       	callq  400c70 <inet_pton@plt>
  4014c2:	85 c0                	test   %eax,%eax
  4014c4:	0f 88 09 02 00 00    	js     4016d3 <send_msg+0x28e>
  4014ca:	48 8d b4 24 50 24 00 	lea    0x2450(%rsp),%rsi
  4014d1:	00 
  4014d2:	ba 10 00 00 00       	mov    $0x10,%edx
  4014d7:	44 89 ff             	mov    %r15d,%edi
  4014da:	e8 21 f8 ff ff       	callq  400d00 <connect@plt>
  4014df:	85 c0                	test   %eax,%eax
  4014e1:	0f 88 22 02 00 00    	js     401709 <send_msg+0x2c4>
  4014e7:	48 8d 6c 24 50       	lea    0x50(%rsp),%rbp
  4014ec:	48 b8 53 75 62 6a 65 	movabs $0x3a7463656a627553,%rax
  4014f3:	63 74 3a 
  4014f6:	48 89 44 24 50       	mov    %rax,0x50(%rsp)
  4014fb:	48 b8 20 42 6f 6d 62 	movabs $0x6f6e20626d6f4220,%rax
  401502:	20 6e 6f 
  401505:	48 89 44 24 58       	mov    %rax,0x58(%rsp)
  40150a:	48 b8 74 69 66 69 63 	movabs $0x6974616369666974,%rax
  401511:	61 74 69 
  401514:	48 89 44 24 60       	mov    %rax,0x60(%rsp)
  401519:	c7 44 24 68 6f 6e 0a 	movl   $0xa6e6f,0x68(%rsp)
  401520:	00 
  401521:	48 8d 9c 24 50 04 00 	lea    0x450(%rsp),%rbx
  401528:	00 
  401529:	48 89 ee             	mov    %rbp,%rsi
  40152c:	48 89 df             	mov    %rbx,%rdi
  40152f:	e8 9c f7 ff ff       	callq  400cd0 <strcat@plt>
  401534:	66 c7 44 24 50 0a 00 	movw   $0xa,0x50(%rsp)
  40153b:	48 89 ee             	mov    %rbp,%rsi
  40153e:	48 89 df             	mov    %rbx,%rdi
  401541:	e8 8a f7 ff ff       	callq  400cd0 <strcat@plt>
  401546:	bf 00 00 00 00       	mov    $0x0,%edi
  40154b:	e8 60 f7 ff ff       	callq  400cb0 <cuserid@plt>
  401550:	48 85 c0             	test   %rax,%rax
  401553:	0f 84 e6 01 00 00    	je     40173f <send_msg+0x2fa>
  401559:	48 89 e7             	mov    %rsp,%rdi
  40155c:	48 89 c6             	mov    %rax,%rsi
  40155f:	e8 1c f6 ff ff       	callq  400b80 <strcpy@plt>
  401564:	45 85 e4             	test   %r12d,%r12d
  401567:	48 8d 05 6b 0a 00 00 	lea    0xa6b(%rip),%rax        # 401fd9 <array.3074+0x1a9>
  40156e:	4c 8d 0d 5c 0a 00 00 	lea    0xa5c(%rip),%r9        # 401fd1 <array.3074+0x1a1>
  401575:	4c 0f 44 c8          	cmove  %rax,%r9
  401579:	48 8d 5c 24 50       	lea    0x50(%rsp),%rbx
  40157e:	48 83 ec 08          	sub    $0x8,%rsp
  401582:	8b 05 f4 1f 20 00    	mov    0x201ff4(%rip),%eax        # 60357c <num_input_strings>
  401588:	50                   	push   %rax
  401589:	4c 8d 44 24 10       	lea    0x10(%rsp),%r8
  40158e:	8b 0d ac 1f 20 00    	mov    0x201fac(%rip),%ecx        # 603540 <bomb_id>
  401594:	48 8d 15 a5 1b 20 00 	lea    0x201ba5(%rip),%rdx        # 603140 <lab_id>
  40159b:	48 8d 35 5b 0a 00 00 	lea    0xa5b(%rip),%rsi        # 401ffd <array.3074+0x1cd>
  4015a2:	48 89 df             	mov    %rbx,%rdi
  4015a5:	b8 00 00 00 00       	mov    $0x0,%eax
  4015aa:	e8 31 f7 ff ff       	callq  400ce0 <sprintf@plt>
  4015af:	48 8d bc 24 60 04 00 	lea    0x460(%rsp),%rdi
  4015b6:	00 
  4015b7:	48 89 de             	mov    %rbx,%rsi
  4015ba:	e8 11 f7 ff ff       	callq  400cd0 <strcat@plt>
  4015bf:	48 83 c4 10          	add    $0x10,%rsp
  4015c3:	83 3d b2 1f 20 00 00 	cmpl   $0x0,0x201fb2(%rip)        # 60357c <num_input_strings>
  4015ca:	7e 70                	jle    40163c <send_msg+0x1f7>
  4015cc:	bb 00 00 00 00       	mov    $0x0,%ebx
  4015d1:	4c 8d 35 c8 1f 20 00 	lea    0x201fc8(%rip),%r14        # 6035a0 <input_strings>
  4015d8:	49 89 e5             	mov    %rsp,%r13
  4015db:	48 8d 6c 24 50       	lea    0x50(%rsp),%rbp
  4015e0:	4c 8d a4 24 50 04 00 	lea    0x450(%rsp),%r12
  4015e7:	00 
  4015e8:	48 63 c3             	movslq %ebx,%rax
  4015eb:	48 8d 04 80          	lea    (%rax,%rax,4),%rax
  4015ef:	48 c1 e0 04          	shl    $0x4,%rax
  4015f3:	4c 01 f0             	add    %r14,%rax
  4015f6:	83 c3 01             	add    $0x1,%ebx
  4015f9:	48 83 ec 08          	sub    $0x8,%rsp
  4015fd:	50                   	push   %rax
  4015fe:	41 89 d9             	mov    %ebx,%r9d
  401601:	4d 89 e8             	mov    %r13,%r8
  401604:	8b 0d 36 1f 20 00    	mov    0x201f36(%rip),%ecx        # 603540 <bomb_id>
  40160a:	48 8d 15 2f 1b 20 00 	lea    0x201b2f(%rip),%rdx        # 603140 <lab_id>
  401611:	48 8d 35 01 0a 00 00 	lea    0xa01(%rip),%rsi        # 402019 <array.3074+0x1e9>
  401618:	48 89 ef             	mov    %rbp,%rdi
  40161b:	b8 00 00 00 00       	mov    $0x0,%eax
  401620:	e8 bb f6 ff ff       	callq  400ce0 <sprintf@plt>
  401625:	48 89 ee             	mov    %rbp,%rsi
  401628:	4c 89 e7             	mov    %r12,%rdi
  40162b:	e8 a0 f6 ff ff       	callq  400cd0 <strcat@plt>
  401630:	48 83 c4 10          	add    $0x10,%rsp
  401634:	39 1d 42 1f 20 00    	cmp    %ebx,0x201f42(%rip)        # 60357c <num_input_strings>
  40163a:	7f ac                	jg     4015e8 <send_msg+0x1a3>
  40163c:	48 8d ac 24 50 04 00 	lea    0x450(%rsp),%rbp
  401643:	00 
  401644:	49 c7 c4 ff ff ff ff 	mov    $0xffffffffffffffff,%r12
  40164b:	bb 00 00 00 00       	mov    $0x0,%ebx
  401650:	4c 89 e1             	mov    %r12,%rcx
  401653:	48 89 ef             	mov    %rbp,%rdi
  401656:	89 d8                	mov    %ebx,%eax
  401658:	f2 ae                	repnz scas %es:(%rdi),%al
  40165a:	48 f7 d1             	not    %rcx
  40165d:	4a 8d 14 21          	lea    (%rcx,%r12,1),%rdx
  401661:	48 89 ee             	mov    %rbp,%rsi
  401664:	44 89 ff             	mov    %r15d,%edi
  401667:	e8 79 fd ff ff       	callq  4013e5 <writen>
  40166c:	48 89 c2             	mov    %rax,%rdx
  40166f:	4c 89 e1             	mov    %r12,%rcx
  401672:	48 89 ef             	mov    %rbp,%rdi
  401675:	89 d8                	mov    %ebx,%eax
  401677:	f2 ae                	repnz scas %es:(%rdi),%al
  401679:	48 f7 d1             	not    %rcx
  40167c:	4c 01 e1             	add    %r12,%rcx
  40167f:	48 39 ca             	cmp    %rcx,%rdx
  401682:	0f 82 cf 00 00 00    	jb     401757 <send_msg+0x312>
  401688:	44 89 ff             	mov    %r15d,%edi
  40168b:	e8 70 f5 ff ff       	callq  400c00 <close@plt>
  401690:	48 81 c4 68 24 00 00 	add    $0x2468,%rsp
  401697:	5b                   	pop    %rbx
  401698:	5d                   	pop    %rbp
  401699:	41 5c                	pop    %r12
  40169b:	41 5d                	pop    %r13
  40169d:	41 5e                	pop    %r14
  40169f:	41 5f                	pop    %r15
  4016a1:	c3                   	retq   
  4016a2:	48 8d 15 39 09 00 00 	lea    0x939(%rip),%rdx        # 401fe2 <array.3074+0x1b2>
  4016a9:	48 8d 35 2d 06 00 00 	lea    0x62d(%rip),%rsi        # 401cdd <_IO_stdin_used+0x1d>
  4016b0:	48 8b 3d a9 1e 20 00 	mov    0x201ea9(%rip),%rdi        # 603560 <stdout@@GLIBC_2.2.5>
  4016b7:	b8 00 00 00 00       	mov    $0x0,%eax
  4016bc:	e8 9f f5 ff ff       	callq  400c60 <fprintf@plt>
  4016c1:	44 89 ff             	mov    %r15d,%edi
  4016c4:	e8 37 f5 ff ff       	callq  400c00 <close@plt>
  4016c9:	bf 01 00 00 00       	mov    $0x1,%edi
  4016ce:	e8 1d f6 ff ff       	callq  400cf0 <exit@plt>
  4016d3:	48 8d 15 7c 09 00 00 	lea    0x97c(%rip),%rdx        # 402056 <array.3074+0x226>
  4016da:	48 8d 35 fc 05 00 00 	lea    0x5fc(%rip),%rsi        # 401cdd <_IO_stdin_used+0x1d>
  4016e1:	48 8b 3d 78 1e 20 00 	mov    0x201e78(%rip),%rdi        # 603560 <stdout@@GLIBC_2.2.5>
  4016e8:	b8 00 00 00 00       	mov    $0x0,%eax
  4016ed:	e8 6e f5 ff ff       	callq  400c60 <fprintf@plt>
  4016f2:	45 85 ff             	test   %r15d,%r15d
  4016f5:	74 08                	je     4016ff <send_msg+0x2ba>
  4016f7:	44 89 ff             	mov    %r15d,%edi
  4016fa:	e8 01 f5 ff ff       	callq  400c00 <close@plt>
  4016ff:	bf 01 00 00 00       	mov    $0x1,%edi
  401704:	e8 e7 f5 ff ff       	callq  400cf0 <exit@plt>
  401709:	48 8d 15 df 08 00 00 	lea    0x8df(%rip),%rdx        # 401fef <array.3074+0x1bf>
  401710:	48 8d 35 c6 05 00 00 	lea    0x5c6(%rip),%rsi        # 401cdd <_IO_stdin_used+0x1d>
  401717:	48 8b 3d 42 1e 20 00 	mov    0x201e42(%rip),%rdi        # 603560 <stdout@@GLIBC_2.2.5>
  40171e:	b8 00 00 00 00       	mov    $0x0,%eax
  401723:	e8 38 f5 ff ff       	callq  400c60 <fprintf@plt>
  401728:	45 85 ff             	test   %r15d,%r15d
  40172b:	74 08                	je     401735 <send_msg+0x2f0>
  40172d:	44 89 ff             	mov    %r15d,%edi
  401730:	e8 cb f4 ff ff       	callq  400c00 <close@plt>
  401735:	bf 01 00 00 00       	mov    $0x1,%edi
  40173a:	e8 b1 f5 ff ff       	callq  400cf0 <exit@plt>
  40173f:	c7 04 24 6e 6f 62 6f 	movl   $0x6f626f6e,(%rsp)
  401746:	66 c7 44 24 04 64 79 	movw   $0x7964,0x4(%rsp)
  40174d:	c6 44 24 06 00       	movb   $0x0,0x6(%rsp)
  401752:	e9 0d fe ff ff       	jmpq   401564 <send_msg+0x11f>
  401757:	48 8d 15 d7 08 00 00 	lea    0x8d7(%rip),%rdx        # 402035 <array.3074+0x205>
  40175e:	48 8d 35 78 05 00 00 	lea    0x578(%rip),%rsi        # 401cdd <_IO_stdin_used+0x1d>
  401765:	48 8b 3d f4 1d 20 00 	mov    0x201df4(%rip),%rdi        # 603560 <stdout@@GLIBC_2.2.5>
  40176c:	e8 ef f4 ff ff       	callq  400c60 <fprintf@plt>
  401771:	45 85 ff             	test   %r15d,%r15d
  401774:	74 08                	je     40177e <send_msg+0x339>
  401776:	44 89 ff             	mov    %r15d,%edi
  401779:	e8 82 f4 ff ff       	callq  400c00 <close@plt>
  40177e:	bf 01 00 00 00       	mov    $0x1,%edi
  401783:	e8 68 f5 ff ff       	callq  400cf0 <exit@plt>

0000000000401788 <send_msg_2>:
  401788:	41 57                	push   %r15
  40178a:	41 56                	push   %r14
  40178c:	41 55                	push   %r13
  40178e:	41 54                	push   %r12
  401790:	55                   	push   %rbp
  401791:	53                   	push   %rbx
  401792:	48 83 ec 68          	sub    $0x68,%rsp
  401796:	89 fb                	mov    %edi,%ebx
  401798:	bf 00 00 00 00       	mov    $0x0,%edi
  40179d:	e8 4e f4 ff ff       	callq  400bf0 <dup@plt>
  4017a2:	89 44 24 0c          	mov    %eax,0xc(%rsp)
  4017a6:	83 f8 ff             	cmp    $0xffffffff,%eax
  4017a9:	0f 84 a6 01 00 00    	je     401955 <send_msg_2+0x1cd>
  4017af:	bf 00 00 00 00       	mov    $0x0,%edi
  4017b4:	e8 47 f4 ff ff       	callq  400c00 <close@plt>
  4017b9:	83 f8 ff             	cmp    $0xffffffff,%eax
  4017bc:	0f 84 a9 01 00 00    	je     40196b <send_msg_2+0x1e3>
  4017c2:	e8 69 f4 ff ff       	callq  400c30 <tmpfile@plt>
  4017c7:	48 89 c5             	mov    %rax,%rbp
  4017ca:	48 85 c0             	test   %rax,%rax
  4017cd:	0f 84 ae 01 00 00    	je     401981 <send_msg_2+0x1f9>
  4017d3:	48 89 c1             	mov    %rax,%rcx
  4017d6:	ba 1b 00 00 00       	mov    $0x1b,%edx
  4017db:	be 01 00 00 00       	mov    $0x1,%esi
  4017e0:	48 8d 3d 9d 08 00 00 	lea    0x89d(%rip),%rdi        # 402084 <array.3074+0x254>
  4017e7:	e8 24 f5 ff ff       	callq  400d10 <fwrite@plt>
  4017ec:	48 89 ee             	mov    %rbp,%rsi
  4017ef:	bf 0a 00 00 00       	mov    $0xa,%edi
  4017f4:	e8 17 f4 ff ff       	callq  400c10 <fputc@plt>
  4017f9:	bf 00 00 00 00       	mov    $0x0,%edi
  4017fe:	e8 ad f4 ff ff       	callq  400cb0 <cuserid@plt>
  401803:	48 85 c0             	test   %rax,%rax
  401806:	0f 84 8b 01 00 00    	je     401997 <send_msg_2+0x20f>
  40180c:	48 8d 7c 24 10       	lea    0x10(%rsp),%rdi
  401811:	48 89 c6             	mov    %rax,%rsi
  401814:	e8 67 f3 ff ff       	callq  400b80 <strcpy@plt>
  401819:	85 db                	test   %ebx,%ebx
  40181b:	48 8d 05 b7 07 00 00 	lea    0x7b7(%rip),%rax        # 401fd9 <array.3074+0x1a9>
  401822:	4c 8d 0d a8 07 00 00 	lea    0x7a8(%rip),%r9        # 401fd1 <array.3074+0x1a1>
  401829:	4c 0f 44 c8          	cmove  %rax,%r9
  40182d:	48 83 ec 08          	sub    $0x8,%rsp
  401831:	8b 05 45 1d 20 00    	mov    0x201d45(%rip),%eax        # 60357c <num_input_strings>
  401837:	50                   	push   %rax
  401838:	4c 8d 44 24 20       	lea    0x20(%rsp),%r8
  40183d:	8b 0d fd 1c 20 00    	mov    0x201cfd(%rip),%ecx        # 603540 <bomb_id>
  401843:	48 8d 15 f6 18 20 00 	lea    0x2018f6(%rip),%rdx        # 603140 <lab_id>
  40184a:	48 8d 35 ac 07 00 00 	lea    0x7ac(%rip),%rsi        # 401ffd <array.3074+0x1cd>
  401851:	48 89 ef             	mov    %rbp,%rdi
  401854:	b8 00 00 00 00       	mov    $0x0,%eax
  401859:	e8 02 f4 ff ff       	callq  400c60 <fprintf@plt>
  40185e:	48 83 c4 10          	add    $0x10,%rsp
  401862:	83 3d 13 1d 20 00 00 	cmpl   $0x0,0x201d13(%rip)        # 60357c <num_input_strings>
  401869:	7e 60                	jle    4018cb <send_msg_2+0x143>
  40186b:	bb 00 00 00 00       	mov    $0x0,%ebx
  401870:	4c 8d 3d 29 1d 20 00 	lea    0x201d29(%rip),%r15        # 6035a0 <input_strings>
  401877:	4c 8d 74 24 10       	lea    0x10(%rsp),%r14
  40187c:	4c 8d 2d bd 18 20 00 	lea    0x2018bd(%rip),%r13        # 603140 <lab_id>
  401883:	4c 8d 25 8f 07 00 00 	lea    0x78f(%rip),%r12        # 402019 <array.3074+0x1e9>
  40188a:	48 63 c3             	movslq %ebx,%rax
  40188d:	48 8d 04 80          	lea    (%rax,%rax,4),%rax
  401891:	48 c1 e0 04          	shl    $0x4,%rax
  401895:	4c 01 f8             	add    %r15,%rax
  401898:	83 c3 01             	add    $0x1,%ebx
  40189b:	48 83 ec 08          	sub    $0x8,%rsp
  40189f:	50                   	push   %rax
  4018a0:	41 89 d9             	mov    %ebx,%r9d
  4018a3:	4d 89 f0             	mov    %r14,%r8
  4018a6:	8b 0d 94 1c 20 00    	mov    0x201c94(%rip),%ecx        # 603540 <bomb_id>
  4018ac:	4c 89 ea             	mov    %r13,%rdx
  4018af:	4c 89 e6             	mov    %r12,%rsi
  4018b2:	48 89 ef             	mov    %rbp,%rdi
  4018b5:	b8 00 00 00 00       	mov    $0x0,%eax
  4018ba:	e8 a1 f3 ff ff       	callq  400c60 <fprintf@plt>
  4018bf:	48 83 c4 10          	add    $0x10,%rsp
  4018c3:	39 1d b3 1c 20 00    	cmp    %ebx,0x201cb3(%rip)        # 60357c <num_input_strings>
  4018c9:	7f bf                	jg     40188a <send_msg_2+0x102>
  4018cb:	48 89 ef             	mov    %rbp,%rdi
  4018ce:	e8 0d f3 ff ff       	callq  400be0 <rewind@plt>
  4018d3:	4c 8d 05 c6 07 00 00 	lea    0x7c6(%rip),%r8        # 4020a0 <array.3074+0x270>
  4018da:	48 8d 0d c9 07 00 00 	lea    0x7c9(%rip),%rcx        # 4020aa <array.3074+0x27a>
  4018e1:	48 8d 15 cd 07 00 00 	lea    0x7cd(%rip),%rdx        # 4020b5 <array.3074+0x285>
  4018e8:	48 8d 35 dd 07 00 00 	lea    0x7dd(%rip),%rsi        # 4020cc <array.3074+0x29c>
  4018ef:	48 8d 3d ea 22 20 00 	lea    0x2022ea(%rip),%rdi        # 603be0 <scratch>
  4018f6:	b8 00 00 00 00       	mov    $0x0,%eax
  4018fb:	e8 e0 f3 ff ff       	callq  400ce0 <sprintf@plt>
  401900:	48 8d 3d d9 22 20 00 	lea    0x2022d9(%rip),%rdi        # 603be0 <scratch>
  401907:	e8 b4 f2 ff ff       	callq  400bc0 <system@plt>
  40190c:	85 c0                	test   %eax,%eax
  40190e:	0f 85 9c 00 00 00    	jne    4019b0 <send_msg_2+0x228>
  401914:	48 89 ef             	mov    %rbp,%rdi
  401917:	e8 94 f2 ff ff       	callq  400bb0 <fclose@plt>
  40191c:	85 c0                	test   %eax,%eax
  40191e:	0f 85 a2 00 00 00    	jne    4019c6 <send_msg_2+0x23e>
  401924:	8b 7c 24 0c          	mov    0xc(%rsp),%edi
  401928:	e8 c3 f2 ff ff       	callq  400bf0 <dup@plt>
  40192d:	85 c0                	test   %eax,%eax
  40192f:	0f 85 a7 00 00 00    	jne    4019dc <send_msg_2+0x254>
  401935:	8b 7c 24 0c          	mov    0xc(%rsp),%edi
  401939:	e8 c2 f2 ff ff       	callq  400c00 <close@plt>
  40193e:	85 c0                	test   %eax,%eax
  401940:	0f 85 ac 00 00 00    	jne    4019f2 <send_msg_2+0x26a>
  401946:	48 83 c4 68          	add    $0x68,%rsp
  40194a:	5b                   	pop    %rbx
  40194b:	5d                   	pop    %rbp
  40194c:	41 5c                	pop    %r12
  40194e:	41 5d                	pop    %r13
  401950:	41 5e                	pop    %r14
  401952:	41 5f                	pop    %r15
  401954:	c3                   	retq   
  401955:	48 8d 3d ec 06 00 00 	lea    0x6ec(%rip),%rdi        # 402048 <array.3074+0x218>
  40195c:	e8 2f f2 ff ff       	callq  400b90 <puts@plt>
  401961:	bf 08 00 00 00       	mov    $0x8,%edi
  401966:	e8 85 f3 ff ff       	callq  400cf0 <exit@plt>
  40196b:	48 8d 3d ea 06 00 00 	lea    0x6ea(%rip),%rdi        # 40205c <array.3074+0x22c>
  401972:	e8 19 f2 ff ff       	callq  400b90 <puts@plt>
  401977:	bf 08 00 00 00       	mov    $0x8,%edi
  40197c:	e8 6f f3 ff ff       	callq  400cf0 <exit@plt>
  401981:	48 8d 3d e7 06 00 00 	lea    0x6e7(%rip),%rdi        # 40206f <array.3074+0x23f>
  401988:	e8 03 f2 ff ff       	callq  400b90 <puts@plt>
  40198d:	bf 08 00 00 00       	mov    $0x8,%edi
  401992:	e8 59 f3 ff ff       	callq  400cf0 <exit@plt>
  401997:	c7 44 24 10 6e 6f 62 	movl   $0x6f626f6e,0x10(%rsp)
  40199e:	6f 
  40199f:	66 c7 44 24 14 64 79 	movw   $0x7964,0x14(%rsp)
  4019a6:	c6 44 24 16 00       	movb   $0x0,0x16(%rsp)
  4019ab:	e9 69 fe ff ff       	jmpq   401819 <send_msg_2+0x91>
  4019b0:	48 8d 3d 1e 07 00 00 	lea    0x71e(%rip),%rdi        # 4020d5 <array.3074+0x2a5>
  4019b7:	e8 d4 f1 ff ff       	callq  400b90 <puts@plt>
  4019bc:	bf 08 00 00 00       	mov    $0x8,%edi
  4019c1:	e8 2a f3 ff ff       	callq  400cf0 <exit@plt>
  4019c6:	48 8d 3d 22 07 00 00 	lea    0x722(%rip),%rdi        # 4020ef <array.3074+0x2bf>
  4019cd:	e8 be f1 ff ff       	callq  400b90 <puts@plt>
  4019d2:	bf 08 00 00 00       	mov    $0x8,%edi
  4019d7:	e8 14 f3 ff ff       	callq  400cf0 <exit@plt>
  4019dc:	48 8d 3d 25 07 00 00 	lea    0x725(%rip),%rdi        # 402108 <array.3074+0x2d8>
  4019e3:	e8 a8 f1 ff ff       	callq  400b90 <puts@plt>
  4019e8:	bf 08 00 00 00       	mov    $0x8,%edi
  4019ed:	e8 fe f2 ff ff       	callq  400cf0 <exit@plt>
  4019f2:	48 8d 3d 2a 07 00 00 	lea    0x72a(%rip),%rdi        # 402123 <array.3074+0x2f3>
  4019f9:	e8 92 f1 ff ff       	callq  400b90 <puts@plt>
  4019fe:	bf 08 00 00 00       	mov    $0x8,%edi
  401a03:	e8 e8 f2 ff ff       	callq  400cf0 <exit@plt>

0000000000401a08 <explode_bomb>:
  401a08:	48 83 ec 08          	sub    $0x8,%rsp
  401a0c:	48 8d 3d 27 07 00 00 	lea    0x727(%rip),%rdi        # 40213a <array.3074+0x30a>
  401a13:	e8 78 f1 ff ff       	callq  400b90 <puts@plt>
  401a18:	48 8d 3d 24 07 00 00 	lea    0x724(%rip),%rdi        # 402143 <array.3074+0x313>
  401a1f:	e8 6c f1 ff ff       	callq  400b90 <puts@plt>
  401a24:	bf 00 00 00 00       	mov    $0x0,%edi
  401a29:	e8 17 fa ff ff       	callq  401445 <send_msg>
  401a2e:	48 8d 3d 43 04 00 00 	lea    0x443(%rip),%rdi        # 401e78 <array.3074+0x48>
  401a35:	e8 56 f1 ff ff       	callq  400b90 <puts@plt>
  401a3a:	bf 08 00 00 00       	mov    $0x8,%edi
  401a3f:	e8 ac f2 ff ff       	callq  400cf0 <exit@plt>

0000000000401a44 <read_six_numbers>:
  401a44:	48 83 ec 08          	sub    $0x8,%rsp
  401a48:	48 89 f2             	mov    %rsi,%rdx
  401a4b:	48 8d 4e 04          	lea    0x4(%rsi),%rcx
  401a4f:	48 8d 46 14          	lea    0x14(%rsi),%rax
  401a53:	50                   	push   %rax
  401a54:	48 8d 46 10          	lea    0x10(%rsi),%rax
  401a58:	50                   	push   %rax
  401a59:	4c 8d 4e 0c          	lea    0xc(%rsi),%r9
  401a5d:	4c 8d 46 08          	lea    0x8(%rsi),%r8
  401a61:	48 8d 35 f2 06 00 00 	lea    0x6f2(%rip),%rsi        # 40215a <array.3074+0x32a>
  401a68:	b8 00 00 00 00       	mov    $0x0,%eax
  401a6d:	e8 1e f2 ff ff       	callq  400c90 <__isoc99_sscanf@plt>
  401a72:	48 83 c4 10          	add    $0x10,%rsp
  401a76:	83 f8 05             	cmp    $0x5,%eax
  401a79:	7e 05                	jle    401a80 <read_six_numbers+0x3c>
  401a7b:	48 83 c4 08          	add    $0x8,%rsp
  401a7f:	c3                   	retq   
  401a80:	e8 83 ff ff ff       	callq  401a08 <explode_bomb>

0000000000401a85 <read_line>:
  401a85:	48 83 ec 08          	sub    $0x8,%rsp
  401a89:	b8 00 00 00 00       	mov    $0x0,%eax
  401a8e:	e8 04 f9 ff ff       	callq  401397 <skip>
  401a93:	48 85 c0             	test   %rax,%rax
  401a96:	74 6f                	je     401b07 <read_line+0x82>
  401a98:	8b 35 de 1a 20 00    	mov    0x201ade(%rip),%esi        # 60357c <num_input_strings>
  401a9e:	48 63 c6             	movslq %esi,%rax
  401aa1:	48 8d 14 80          	lea    (%rax,%rax,4),%rdx
  401aa5:	48 c1 e2 04          	shl    $0x4,%rdx
  401aa9:	48 8d 05 f0 1a 20 00 	lea    0x201af0(%rip),%rax        # 6035a0 <input_strings>
  401ab0:	48 01 c2             	add    %rax,%rdx
  401ab3:	b8 00 00 00 00       	mov    $0x0,%eax
  401ab8:	48 c7 c1 ff ff ff ff 	mov    $0xffffffffffffffff,%rcx
  401abf:	48 89 d7             	mov    %rdx,%rdi
  401ac2:	f2 ae                	repnz scas %es:(%rdi),%al
  401ac4:	48 f7 d1             	not    %rcx
  401ac7:	48 83 e9 01          	sub    $0x1,%rcx
  401acb:	83 f9 4f             	cmp    $0x4f,%ecx
  401ace:	0f 84 a1 00 00 00    	je     401b75 <read_line+0xf0>
  401ad4:	83 e9 01             	sub    $0x1,%ecx
  401ad7:	48 63 c9             	movslq %ecx,%rcx
  401ada:	48 63 c6             	movslq %esi,%rax
  401add:	48 8d 04 80          	lea    (%rax,%rax,4),%rax
  401ae1:	48 c1 e0 04          	shl    $0x4,%rax
  401ae5:	48 89 c7             	mov    %rax,%rdi
  401ae8:	48 8d 05 b1 1a 20 00 	lea    0x201ab1(%rip),%rax        # 6035a0 <input_strings>
  401aef:	48 01 f8             	add    %rdi,%rax
  401af2:	c6 04 08 00          	movb   $0x0,(%rax,%rcx,1)
  401af6:	83 c6 01             	add    $0x1,%esi
  401af9:	89 35 7d 1a 20 00    	mov    %esi,0x201a7d(%rip)        # 60357c <num_input_strings>
  401aff:	48 89 d0             	mov    %rdx,%rax
  401b02:	48 83 c4 08          	add    $0x8,%rsp
  401b06:	c3                   	retq   
  401b07:	48 8b 05 62 1a 20 00 	mov    0x201a62(%rip),%rax        # 603570 <stdin@@GLIBC_2.2.5>
  401b0e:	48 39 05 6b 1a 20 00 	cmp    %rax,0x201a6b(%rip)        # 603580 <infile>
  401b15:	74 43                	je     401b5a <read_line+0xd5>
  401b17:	48 8d 3d 6c 06 00 00 	lea    0x66c(%rip),%rdi        # 40218a <array.3074+0x35a>
  401b1e:	e8 3d f0 ff ff       	callq  400b60 <getenv@plt>
  401b23:	48 85 c0             	test   %rax,%rax
  401b26:	75 43                	jne    401b6b <read_line+0xe6>
  401b28:	48 8b 05 41 1a 20 00 	mov    0x201a41(%rip),%rax        # 603570 <stdin@@GLIBC_2.2.5>
  401b2f:	48 89 05 4a 1a 20 00 	mov    %rax,0x201a4a(%rip)        # 603580 <infile>
  401b36:	b8 00 00 00 00       	mov    $0x0,%eax
  401b3b:	e8 57 f8 ff ff       	callq  401397 <skip>
  401b40:	48 85 c0             	test   %rax,%rax
  401b43:	0f 85 4f ff ff ff    	jne    401a98 <read_line+0x13>
  401b49:	48 8d 3d 1c 06 00 00 	lea    0x61c(%rip),%rdi        # 40216c <array.3074+0x33c>
  401b50:	e8 3b f0 ff ff       	callq  400b90 <puts@plt>
  401b55:	e8 ae fe ff ff       	callq  401a08 <explode_bomb>
  401b5a:	48 8d 3d 0b 06 00 00 	lea    0x60b(%rip),%rdi        # 40216c <array.3074+0x33c>
  401b61:	e8 2a f0 ff ff       	callq  400b90 <puts@plt>
  401b66:	e8 9d fe ff ff       	callq  401a08 <explode_bomb>
  401b6b:	bf 00 00 00 00       	mov    $0x0,%edi
  401b70:	e8 7b f1 ff ff       	callq  400cf0 <exit@plt>
  401b75:	48 8d 3d 19 06 00 00 	lea    0x619(%rip),%rdi        # 402195 <array.3074+0x365>
  401b7c:	e8 0f f0 ff ff       	callq  400b90 <puts@plt>
  401b81:	e8 82 fe ff ff       	callq  401a08 <explode_bomb>

0000000000401b86 <phase_defused>:
  401b86:	48 83 ec 78          	sub    $0x78,%rsp
  401b8a:	bf 01 00 00 00       	mov    $0x1,%edi
  401b8f:	e8 b1 f8 ff ff       	callq  401445 <send_msg>
  401b94:	83 3d e1 19 20 00 03 	cmpl   $0x3,0x2019e1(%rip)        # 60357c <num_input_strings>
  401b9b:	74 05                	je     401ba2 <phase_defused+0x1c>
  401b9d:	48 83 c4 78          	add    $0x78,%rsp
  401ba1:	c3                   	retq   
  401ba2:	48 8d 4c 24 18       	lea    0x18(%rsp),%rcx
  401ba7:	48 8d 54 24 1c       	lea    0x1c(%rsp),%rdx
  401bac:	48 83 ec 08          	sub    $0x8,%rsp
  401bb0:	48 8d 44 24 28       	lea    0x28(%rsp),%rax
  401bb5:	50                   	push   %rax
  401bb6:	48 8d 44 24 18       	lea    0x18(%rsp),%rax
  401bbb:	50                   	push   %rax
  401bbc:	48 8d 44 24 24       	lea    0x24(%rsp),%rax
  401bc1:	50                   	push   %rax
  401bc2:	4c 8d 4c 24 30       	lea    0x30(%rsp),%r9
  401bc7:	4c 8d 44 24 34       	lea    0x34(%rsp),%r8
  401bcc:	48 8d 35 dd 05 00 00 	lea    0x5dd(%rip),%rsi        # 4021b0 <array.3074+0x380>
  401bd3:	48 8d 3d 16 1a 20 00 	lea    0x201a16(%rip),%rdi        # 6035f0 <input_strings+0x50>
  401bda:	b8 00 00 00 00       	mov    $0x0,%eax
  401bdf:	e8 ac f0 ff ff       	callq  400c90 <__isoc99_sscanf@plt>
  401be4:	48 83 c4 20          	add    $0x20,%rsp
  401be8:	83 f8 07             	cmp    $0x7,%eax
  401beb:	74 1a                	je     401c07 <phase_defused+0x81>
  401bed:	48 8d 3d 0c 03 00 00 	lea    0x30c(%rip),%rdi        # 401f00 <array.3074+0xd0>
  401bf4:	e8 97 ef ff ff       	callq  400b90 <puts@plt>
  401bf9:	48 8d 3d 30 03 00 00 	lea    0x330(%rip),%rdi        # 401f30 <array.3074+0x100>
  401c00:	e8 8b ef ff ff       	callq  400b90 <puts@plt>
  401c05:	eb 96                	jmp    401b9d <phase_defused+0x17>
  401c07:	48 8d 7c 24 20       	lea    0x20(%rsp),%rdi
  401c0c:	48 8d 35 b2 05 00 00 	lea    0x5b2(%rip),%rsi        # 4021c5 <array.3074+0x395>
  401c13:	e8 e0 f5 ff ff       	callq  4011f8 <strings_not_equal>
  401c18:	85 c0                	test   %eax,%eax
  401c1a:	75 d1                	jne    401bed <phase_defused+0x67>
  401c1c:	48 8d 3d 7d 02 00 00 	lea    0x27d(%rip),%rdi        # 401ea0 <array.3074+0x70>
  401c23:	e8 68 ef ff ff       	callq  400b90 <puts@plt>
  401c28:	48 8d 3d 99 02 00 00 	lea    0x299(%rip),%rdi        # 401ec8 <array.3074+0x98>
  401c2f:	e8 5c ef ff ff       	callq  400b90 <puts@plt>
  401c34:	b8 00 00 00 00       	mov    $0x0,%eax
  401c39:	e8 b3 f4 ff ff       	callq  4010f1 <secret_phase>
  401c3e:	eb ad                	jmp    401bed <phase_defused+0x67>

0000000000401c40 <__libc_csu_init>:
  401c40:	41 57                	push   %r15
  401c42:	41 56                	push   %r14
  401c44:	41 89 ff             	mov    %edi,%r15d
  401c47:	41 55                	push   %r13
  401c49:	41 54                	push   %r12
  401c4b:	4c 8d 25 b6 11 20 00 	lea    0x2011b6(%rip),%r12        # 602e08 <__frame_dummy_init_array_entry>
  401c52:	55                   	push   %rbp
  401c53:	48 8d 2d b6 11 20 00 	lea    0x2011b6(%rip),%rbp        # 602e10 <__init_array_end>
  401c5a:	53                   	push   %rbx
  401c5b:	49 89 f6             	mov    %rsi,%r14
  401c5e:	49 89 d5             	mov    %rdx,%r13
  401c61:	4c 29 e5             	sub    %r12,%rbp
  401c64:	48 83 ec 08          	sub    $0x8,%rsp
  401c68:	48 c1 fd 03          	sar    $0x3,%rbp
  401c6c:	e8 bf ee ff ff       	callq  400b30 <_init>
  401c71:	48 85 ed             	test   %rbp,%rbp
  401c74:	74 20                	je     401c96 <__libc_csu_init+0x56>
  401c76:	31 db                	xor    %ebx,%ebx
  401c78:	0f 1f 84 00 00 00 00 	nopl   0x0(%rax,%rax,1)
  401c7f:	00 
  401c80:	4c 89 ea             	mov    %r13,%rdx
  401c83:	4c 89 f6             	mov    %r14,%rsi
  401c86:	44 89 ff             	mov    %r15d,%edi
  401c89:	41 ff 14 dc          	callq  *(%r12,%rbx,8)
  401c8d:	48 83 c3 01          	add    $0x1,%rbx
  401c91:	48 39 dd             	cmp    %rbx,%rbp
  401c94:	75 ea                	jne    401c80 <__libc_csu_init+0x40>
  401c96:	48 83 c4 08          	add    $0x8,%rsp
  401c9a:	5b                   	pop    %rbx
  401c9b:	5d                   	pop    %rbp
  401c9c:	41 5c                	pop    %r12
  401c9e:	41 5d                	pop    %r13
  401ca0:	41 5e                	pop    %r14
  401ca2:	41 5f                	pop    %r15
  401ca4:	c3                   	retq   
  401ca5:	90                   	nop
  401ca6:	66 2e 0f 1f 84 00 00 	nopw   %cs:0x0(%rax,%rax,1)
  401cad:	00 00 00 

0000000000401cb0 <__libc_csu_fini>:
  401cb0:	f3 c3                	repz retq 

Disassembly of section .fini:

0000000000401cb4 <_fini>:
  401cb4:	48 83 ec 08          	sub    $0x8,%rsp
  401cb8:	48 83 c4 08          	add    $0x8,%rsp
  401cbc:	c3                   	retq   
